
rtarget:     file format elf64-x86-64


Disassembly of section .init:

0000000000400c68 <_init>:
  400c68:	48 83 ec 08          	sub    $0x8,%rsp
  400c6c:	48 8b 05 85 53 20 00 	mov    0x205385(%rip),%rax        # 605ff8 <__gmon_start__>
  400c73:	48 85 c0             	test   %rax,%rax
  400c76:	74 05                	je     400c7d <_init+0x15>
  400c78:	e8 33 01 00 00       	callq  400db0 <__gmon_start__@plt>
  400c7d:	48 83 c4 08          	add    $0x8,%rsp
  400c81:	c3                   	retq   

Disassembly of section .plt:

0000000000400c90 <.plt>:
  400c90:	ff 35 72 53 20 00    	pushq  0x205372(%rip)        # 606008 <_GLOBAL_OFFSET_TABLE_+0x8>
  400c96:	ff 25 74 53 20 00    	jmpq   *0x205374(%rip)        # 606010 <_GLOBAL_OFFSET_TABLE_+0x10>
  400c9c:	0f 1f 40 00          	nopl   0x0(%rax)

0000000000400ca0 <strcasecmp@plt>:
  400ca0:	ff 25 72 53 20 00    	jmpq   *0x205372(%rip)        # 606018 <strcasecmp@GLIBC_2.2.5>
  400ca6:	68 00 00 00 00       	pushq  $0x0
  400cab:	e9 e0 ff ff ff       	jmpq   400c90 <.plt>

0000000000400cb0 <__errno_location@plt>:
  400cb0:	ff 25 6a 53 20 00    	jmpq   *0x20536a(%rip)        # 606020 <__errno_location@GLIBC_2.2.5>
  400cb6:	68 01 00 00 00       	pushq  $0x1
  400cbb:	e9 d0 ff ff ff       	jmpq   400c90 <.plt>

0000000000400cc0 <srandom@plt>:
  400cc0:	ff 25 62 53 20 00    	jmpq   *0x205362(%rip)        # 606028 <srandom@GLIBC_2.2.5>
  400cc6:	68 02 00 00 00       	pushq  $0x2
  400ccb:	e9 c0 ff ff ff       	jmpq   400c90 <.plt>

0000000000400cd0 <strncmp@plt>:
  400cd0:	ff 25 5a 53 20 00    	jmpq   *0x20535a(%rip)        # 606030 <strncmp@GLIBC_2.2.5>
  400cd6:	68 03 00 00 00       	pushq  $0x3
  400cdb:	e9 b0 ff ff ff       	jmpq   400c90 <.plt>

0000000000400ce0 <strcpy@plt>:
  400ce0:	ff 25 52 53 20 00    	jmpq   *0x205352(%rip)        # 606038 <strcpy@GLIBC_2.2.5>
  400ce6:	68 04 00 00 00       	pushq  $0x4
  400ceb:	e9 a0 ff ff ff       	jmpq   400c90 <.plt>

0000000000400cf0 <puts@plt>:
  400cf0:	ff 25 4a 53 20 00    	jmpq   *0x20534a(%rip)        # 606040 <puts@GLIBC_2.2.5>
  400cf6:	68 05 00 00 00       	pushq  $0x5
  400cfb:	e9 90 ff ff ff       	jmpq   400c90 <.plt>

0000000000400d00 <write@plt>:
  400d00:	ff 25 42 53 20 00    	jmpq   *0x205342(%rip)        # 606048 <write@GLIBC_2.2.5>
  400d06:	68 06 00 00 00       	pushq  $0x6
  400d0b:	e9 80 ff ff ff       	jmpq   400c90 <.plt>

0000000000400d10 <mmap@plt>:
  400d10:	ff 25 3a 53 20 00    	jmpq   *0x20533a(%rip)        # 606050 <mmap@GLIBC_2.2.5>
  400d16:	68 07 00 00 00       	pushq  $0x7
  400d1b:	e9 70 ff ff ff       	jmpq   400c90 <.plt>

0000000000400d20 <printf@plt>:
  400d20:	ff 25 32 53 20 00    	jmpq   *0x205332(%rip)        # 606058 <printf@GLIBC_2.2.5>
  400d26:	68 08 00 00 00       	pushq  $0x8
  400d2b:	e9 60 ff ff ff       	jmpq   400c90 <.plt>

0000000000400d30 <memset@plt>:
  400d30:	ff 25 2a 53 20 00    	jmpq   *0x20532a(%rip)        # 606060 <memset@GLIBC_2.2.5>
  400d36:	68 09 00 00 00       	pushq  $0x9
  400d3b:	e9 50 ff ff ff       	jmpq   400c90 <.plt>

0000000000400d40 <alarm@plt>:
  400d40:	ff 25 22 53 20 00    	jmpq   *0x205322(%rip)        # 606068 <alarm@GLIBC_2.2.5>
  400d46:	68 0a 00 00 00       	pushq  $0xa
  400d4b:	e9 40 ff ff ff       	jmpq   400c90 <.plt>

0000000000400d50 <close@plt>:
  400d50:	ff 25 1a 53 20 00    	jmpq   *0x20531a(%rip)        # 606070 <close@GLIBC_2.2.5>
  400d56:	68 0b 00 00 00       	pushq  $0xb
  400d5b:	e9 30 ff ff ff       	jmpq   400c90 <.plt>

0000000000400d60 <read@plt>:
  400d60:	ff 25 12 53 20 00    	jmpq   *0x205312(%rip)        # 606078 <read@GLIBC_2.2.5>
  400d66:	68 0c 00 00 00       	pushq  $0xc
  400d6b:	e9 20 ff ff ff       	jmpq   400c90 <.plt>

0000000000400d70 <__libc_start_main@plt>:
  400d70:	ff 25 0a 53 20 00    	jmpq   *0x20530a(%rip)        # 606080 <__libc_start_main@GLIBC_2.2.5>
  400d76:	68 0d 00 00 00       	pushq  $0xd
  400d7b:	e9 10 ff ff ff       	jmpq   400c90 <.plt>

0000000000400d80 <signal@plt>:
  400d80:	ff 25 02 53 20 00    	jmpq   *0x205302(%rip)        # 606088 <signal@GLIBC_2.2.5>
  400d86:	68 0e 00 00 00       	pushq  $0xe
  400d8b:	e9 00 ff ff ff       	jmpq   400c90 <.plt>

0000000000400d90 <gethostbyname@plt>:
  400d90:	ff 25 fa 52 20 00    	jmpq   *0x2052fa(%rip)        # 606090 <gethostbyname@GLIBC_2.2.5>
  400d96:	68 0f 00 00 00       	pushq  $0xf
  400d9b:	e9 f0 fe ff ff       	jmpq   400c90 <.plt>

0000000000400da0 <fprintf@plt>:
  400da0:	ff 25 f2 52 20 00    	jmpq   *0x2052f2(%rip)        # 606098 <fprintf@GLIBC_2.2.5>
  400da6:	68 10 00 00 00       	pushq  $0x10
  400dab:	e9 e0 fe ff ff       	jmpq   400c90 <.plt>

0000000000400db0 <__gmon_start__@plt>:
  400db0:	ff 25 ea 52 20 00    	jmpq   *0x2052ea(%rip)        # 6060a0 <__gmon_start__>
  400db6:	68 11 00 00 00       	pushq  $0x11
  400dbb:	e9 d0 fe ff ff       	jmpq   400c90 <.plt>

0000000000400dc0 <strtol@plt>:
  400dc0:	ff 25 e2 52 20 00    	jmpq   *0x2052e2(%rip)        # 6060a8 <strtol@GLIBC_2.2.5>
  400dc6:	68 12 00 00 00       	pushq  $0x12
  400dcb:	e9 c0 fe ff ff       	jmpq   400c90 <.plt>

0000000000400dd0 <memcpy@plt>:
  400dd0:	ff 25 da 52 20 00    	jmpq   *0x2052da(%rip)        # 6060b0 <memcpy@GLIBC_2.14>
  400dd6:	68 13 00 00 00       	pushq  $0x13
  400ddb:	e9 b0 fe ff ff       	jmpq   400c90 <.plt>

0000000000400de0 <prctl@plt>:
  400de0:	ff 25 d2 52 20 00    	jmpq   *0x2052d2(%rip)        # 6060b8 <prctl@GLIBC_2.2.5>
  400de6:	68 14 00 00 00       	pushq  $0x14
  400deb:	e9 a0 fe ff ff       	jmpq   400c90 <.plt>

0000000000400df0 <time@plt>:
  400df0:	ff 25 ca 52 20 00    	jmpq   *0x2052ca(%rip)        # 6060c0 <time@GLIBC_2.2.5>
  400df6:	68 15 00 00 00       	pushq  $0x15
  400dfb:	e9 90 fe ff ff       	jmpq   400c90 <.plt>

0000000000400e00 <random@plt>:
  400e00:	ff 25 c2 52 20 00    	jmpq   *0x2052c2(%rip)        # 6060c8 <random@GLIBC_2.2.5>
  400e06:	68 16 00 00 00       	pushq  $0x16
  400e0b:	e9 80 fe ff ff       	jmpq   400c90 <.plt>

0000000000400e10 <_IO_getc@plt>:
  400e10:	ff 25 ba 52 20 00    	jmpq   *0x2052ba(%rip)        # 6060d0 <_IO_getc@GLIBC_2.2.5>
  400e16:	68 17 00 00 00       	pushq  $0x17
  400e1b:	e9 70 fe ff ff       	jmpq   400c90 <.plt>

0000000000400e20 <__isoc99_sscanf@plt>:
  400e20:	ff 25 b2 52 20 00    	jmpq   *0x2052b2(%rip)        # 6060d8 <__isoc99_sscanf@GLIBC_2.7>
  400e26:	68 18 00 00 00       	pushq  $0x18
  400e2b:	e9 60 fe ff ff       	jmpq   400c90 <.plt>

0000000000400e30 <munmap@plt>:
  400e30:	ff 25 aa 52 20 00    	jmpq   *0x2052aa(%rip)        # 6060e0 <munmap@GLIBC_2.2.5>
  400e36:	68 19 00 00 00       	pushq  $0x19
  400e3b:	e9 50 fe ff ff       	jmpq   400c90 <.plt>

0000000000400e40 <bcopy@plt>:
  400e40:	ff 25 a2 52 20 00    	jmpq   *0x2052a2(%rip)        # 6060e8 <bcopy@GLIBC_2.2.5>
  400e46:	68 1a 00 00 00       	pushq  $0x1a
  400e4b:	e9 40 fe ff ff       	jmpq   400c90 <.plt>

0000000000400e50 <fopen@plt>:
  400e50:	ff 25 9a 52 20 00    	jmpq   *0x20529a(%rip)        # 6060f0 <fopen@GLIBC_2.2.5>
  400e56:	68 1b 00 00 00       	pushq  $0x1b
  400e5b:	e9 30 fe ff ff       	jmpq   400c90 <.plt>

0000000000400e60 <perror@plt>:
  400e60:	ff 25 92 52 20 00    	jmpq   *0x205292(%rip)        # 6060f8 <perror@GLIBC_2.2.5>
  400e66:	68 1c 00 00 00       	pushq  $0x1c
  400e6b:	e9 20 fe ff ff       	jmpq   400c90 <.plt>

0000000000400e70 <getopt@plt>:
  400e70:	ff 25 8a 52 20 00    	jmpq   *0x20528a(%rip)        # 606100 <getopt@GLIBC_2.2.5>
  400e76:	68 1d 00 00 00       	pushq  $0x1d
  400e7b:	e9 10 fe ff ff       	jmpq   400c90 <.plt>

0000000000400e80 <strtoul@plt>:
  400e80:	ff 25 82 52 20 00    	jmpq   *0x205282(%rip)        # 606108 <strtoul@GLIBC_2.2.5>
  400e86:	68 1e 00 00 00       	pushq  $0x1e
  400e8b:	e9 00 fe ff ff       	jmpq   400c90 <.plt>

0000000000400e90 <gethostname@plt>:
  400e90:	ff 25 7a 52 20 00    	jmpq   *0x20527a(%rip)        # 606110 <gethostname@GLIBC_2.2.5>
  400e96:	68 1f 00 00 00       	pushq  $0x1f
  400e9b:	e9 f0 fd ff ff       	jmpq   400c90 <.plt>

0000000000400ea0 <sprintf@plt>:
  400ea0:	ff 25 72 52 20 00    	jmpq   *0x205272(%rip)        # 606118 <sprintf@GLIBC_2.2.5>
  400ea6:	68 20 00 00 00       	pushq  $0x20
  400eab:	e9 e0 fd ff ff       	jmpq   400c90 <.plt>

0000000000400eb0 <exit@plt>:
  400eb0:	ff 25 6a 52 20 00    	jmpq   *0x20526a(%rip)        # 606120 <exit@GLIBC_2.2.5>
  400eb6:	68 21 00 00 00       	pushq  $0x21
  400ebb:	e9 d0 fd ff ff       	jmpq   400c90 <.plt>

0000000000400ec0 <connect@plt>:
  400ec0:	ff 25 62 52 20 00    	jmpq   *0x205262(%rip)        # 606128 <connect@GLIBC_2.2.5>
  400ec6:	68 22 00 00 00       	pushq  $0x22
  400ecb:	e9 c0 fd ff ff       	jmpq   400c90 <.plt>

0000000000400ed0 <fwrite@plt>:
  400ed0:	ff 25 5a 52 20 00    	jmpq   *0x20525a(%rip)        # 606130 <fwrite@GLIBC_2.2.5>
  400ed6:	68 23 00 00 00       	pushq  $0x23
  400edb:	e9 b0 fd ff ff       	jmpq   400c90 <.plt>

0000000000400ee0 <socket@plt>:
  400ee0:	ff 25 52 52 20 00    	jmpq   *0x205252(%rip)        # 606138 <socket@GLIBC_2.2.5>
  400ee6:	68 24 00 00 00       	pushq  $0x24
  400eeb:	e9 a0 fd ff ff       	jmpq   400c90 <.plt>

Disassembly of section .text:

0000000000400ef0 <_start>:
  400ef0:	31 ed                	xor    %ebp,%ebp
  400ef2:	49 89 d1             	mov    %rdx,%r9
  400ef5:	5e                   	pop    %rsi
  400ef6:	48 89 e2             	mov    %rsp,%rdx
  400ef9:	48 83 e4 f0          	and    $0xfffffffffffffff0,%rsp
  400efd:	50                   	push   %rax
  400efe:	54                   	push   %rsp
  400eff:	49 c7 c0 f0 2e 40 00 	mov    $0x402ef0,%r8
  400f06:	48 c7 c1 80 2e 40 00 	mov    $0x402e80,%rcx
  400f0d:	48 c7 c7 8b 12 40 00 	mov    $0x40128b,%rdi
  400f14:	e8 57 fe ff ff       	callq  400d70 <__libc_start_main@plt>
  400f19:	f4                   	hlt    
  400f1a:	66 0f 1f 44 00 00    	nopw   0x0(%rax,%rax,1)

0000000000400f20 <deregister_tm_clones>:
  400f20:	b8 97 69 60 00       	mov    $0x606997,%eax
  400f25:	55                   	push   %rbp
  400f26:	48 2d 90 69 60 00    	sub    $0x606990,%rax
  400f2c:	48 83 f8 0e          	cmp    $0xe,%rax
  400f30:	48 89 e5             	mov    %rsp,%rbp
  400f33:	77 02                	ja     400f37 <deregister_tm_clones+0x17>
  400f35:	5d                   	pop    %rbp
  400f36:	c3                   	retq   
  400f37:	b8 00 00 00 00       	mov    $0x0,%eax
  400f3c:	48 85 c0             	test   %rax,%rax
  400f3f:	74 f4                	je     400f35 <deregister_tm_clones+0x15>
  400f41:	5d                   	pop    %rbp
  400f42:	bf 90 69 60 00       	mov    $0x606990,%edi
  400f47:	ff e0                	jmpq   *%rax
  400f49:	0f 1f 80 00 00 00 00 	nopl   0x0(%rax)

0000000000400f50 <register_tm_clones>:
  400f50:	b8 90 69 60 00       	mov    $0x606990,%eax
  400f55:	55                   	push   %rbp
  400f56:	48 2d 90 69 60 00    	sub    $0x606990,%rax
  400f5c:	48 c1 f8 03          	sar    $0x3,%rax
  400f60:	48 89 e5             	mov    %rsp,%rbp
  400f63:	48 89 c2             	mov    %rax,%rdx
  400f66:	48 c1 ea 3f          	shr    $0x3f,%rdx
  400f6a:	48 01 d0             	add    %rdx,%rax
  400f6d:	48 d1 f8             	sar    %rax
  400f70:	75 02                	jne    400f74 <register_tm_clones+0x24>
  400f72:	5d                   	pop    %rbp
  400f73:	c3                   	retq   
  400f74:	ba 00 00 00 00       	mov    $0x0,%edx
  400f79:	48 85 d2             	test   %rdx,%rdx
  400f7c:	74 f4                	je     400f72 <register_tm_clones+0x22>
  400f7e:	5d                   	pop    %rbp
  400f7f:	48 89 c6             	mov    %rax,%rsi
  400f82:	bf 90 69 60 00       	mov    $0x606990,%edi
  400f87:	ff e2                	jmpq   *%rdx
  400f89:	0f 1f 80 00 00 00 00 	nopl   0x0(%rax)

0000000000400f90 <__do_global_dtors_aux>:
  400f90:	80 3d 21 5a 20 00 00 	cmpb   $0x0,0x205a21(%rip)        # 6069b8 <completed.6355>
  400f97:	75 11                	jne    400faa <__do_global_dtors_aux+0x1a>
  400f99:	55                   	push   %rbp
  400f9a:	48 89 e5             	mov    %rsp,%rbp
  400f9d:	e8 7e ff ff ff       	callq  400f20 <deregister_tm_clones>
  400fa2:	5d                   	pop    %rbp
  400fa3:	c6 05 0e 5a 20 00 01 	movb   $0x1,0x205a0e(%rip)        # 6069b8 <completed.6355>
  400faa:	f3 c3                	repz retq 
  400fac:	0f 1f 40 00          	nopl   0x0(%rax)

0000000000400fb0 <frame_dummy>:
  400fb0:	48 83 3d 68 4e 20 00 	cmpq   $0x0,0x204e68(%rip)        # 605e20 <__JCR_END__>
  400fb7:	00 
  400fb8:	74 1e                	je     400fd8 <frame_dummy+0x28>
  400fba:	b8 00 00 00 00       	mov    $0x0,%eax
  400fbf:	48 85 c0             	test   %rax,%rax
  400fc2:	74 14                	je     400fd8 <frame_dummy+0x28>
  400fc4:	55                   	push   %rbp
  400fc5:	bf 20 5e 60 00       	mov    $0x605e20,%edi
  400fca:	48 89 e5             	mov    %rsp,%rbp
  400fcd:	ff d0                	callq  *%rax
  400fcf:	5d                   	pop    %rbp
  400fd0:	e9 7b ff ff ff       	jmpq   400f50 <register_tm_clones>
  400fd5:	0f 1f 00             	nopl   (%rax)
  400fd8:	e9 73 ff ff ff       	jmpq   400f50 <register_tm_clones>
  400fdd:	0f 1f 00             	nopl   (%rax)

0000000000400fe0 <usage>:
  400fe0:	48 83 ec 08          	sub    $0x8,%rsp
  400fe4:	48 89 fe             	mov    %rdi,%rsi
  400fe7:	83 3d fa 59 20 00 00 	cmpl   $0x0,0x2059fa(%rip)        # 6069e8 <is_checker>
  400fee:	74 39                	je     401029 <usage+0x49>
  400ff0:	bf 10 2f 40 00       	mov    $0x402f10,%edi
  400ff5:	b8 00 00 00 00       	mov    $0x0,%eax
  400ffa:	e8 21 fd ff ff       	callq  400d20 <printf@plt>
  400fff:	bf 48 2f 40 00       	mov    $0x402f48,%edi
  401004:	e8 e7 fc ff ff       	callq  400cf0 <puts@plt>
  401009:	bf e8 30 40 00       	mov    $0x4030e8,%edi
  40100e:	e8 dd fc ff ff       	callq  400cf0 <puts@plt>
  401013:	bf 70 2f 40 00       	mov    $0x402f70,%edi
  401018:	e8 d3 fc ff ff       	callq  400cf0 <puts@plt>
  40101d:	bf 02 31 40 00       	mov    $0x403102,%edi
  401022:	e8 c9 fc ff ff       	callq  400cf0 <puts@plt>
  401027:	eb 2d                	jmp    401056 <usage+0x76>
  401029:	bf 1e 31 40 00       	mov    $0x40311e,%edi
  40102e:	b8 00 00 00 00       	mov    $0x0,%eax
  401033:	e8 e8 fc ff ff       	callq  400d20 <printf@plt>
  401038:	bf 98 2f 40 00       	mov    $0x402f98,%edi
  40103d:	e8 ae fc ff ff       	callq  400cf0 <puts@plt>
  401042:	bf c0 2f 40 00       	mov    $0x402fc0,%edi
  401047:	e8 a4 fc ff ff       	callq  400cf0 <puts@plt>
  40104c:	bf 3c 31 40 00       	mov    $0x40313c,%edi
  401051:	e8 9a fc ff ff       	callq  400cf0 <puts@plt>
  401056:	bf 00 00 00 00       	mov    $0x0,%edi
  40105b:	e8 50 fe ff ff       	callq  400eb0 <exit@plt>

0000000000401060 <initialize_target>:
  401060:	55                   	push   %rbp
  401061:	53                   	push   %rbx
  401062:	48 81 ec 08 21 00 00 	sub    $0x2108,%rsp
  401069:	89 f5                	mov    %esi,%ebp
  40106b:	89 3d 67 59 20 00    	mov    %edi,0x205967(%rip)        # 6069d8 <check_level>
  401071:	8b 3d f1 50 20 00    	mov    0x2050f1(%rip),%edi        # 606168 <target_id>
  401077:	e8 d7 1d 00 00       	callq  402e53 <gencookie>
  40107c:	89 05 62 59 20 00    	mov    %eax,0x205962(%rip)        # 6069e4 <cookie>
  401082:	89 c7                	mov    %eax,%edi
  401084:	e8 ca 1d 00 00       	callq  402e53 <gencookie>
  401089:	89 05 51 59 20 00    	mov    %eax,0x205951(%rip)        # 6069e0 <authkey>
  40108f:	8b 05 d3 50 20 00    	mov    0x2050d3(%rip),%eax        # 606168 <target_id>
  401095:	8d 78 01             	lea    0x1(%rax),%edi
  401098:	e8 23 fc ff ff       	callq  400cc0 <srandom@plt>
  40109d:	e8 5e fd ff ff       	callq  400e00 <random@plt>
  4010a2:	89 c7                	mov    %eax,%edi
  4010a4:	e8 be 03 00 00       	callq  401467 <scramble>
  4010a9:	89 c3                	mov    %eax,%ebx
  4010ab:	85 ed                	test   %ebp,%ebp
  4010ad:	74 18                	je     4010c7 <initialize_target+0x67>
  4010af:	bf 00 00 00 00       	mov    $0x0,%edi
  4010b4:	e8 37 fd ff ff       	callq  400df0 <time@plt>
  4010b9:	89 c7                	mov    %eax,%edi
  4010bb:	e8 00 fc ff ff       	callq  400cc0 <srandom@plt>
  4010c0:	e8 3b fd ff ff       	callq  400e00 <random@plt>
  4010c5:	eb 05                	jmp    4010cc <initialize_target+0x6c>
  4010c7:	b8 00 00 00 00       	mov    $0x0,%eax
  4010cc:	01 c3                	add    %eax,%ebx
  4010ce:	0f b7 db             	movzwl %bx,%ebx
  4010d1:	8d 04 dd 00 01 00 00 	lea    0x100(,%rbx,8),%eax
  4010d8:	89 c0                	mov    %eax,%eax
  4010da:	48 89 05 9f 58 20 00 	mov    %rax,0x20589f(%rip)        # 606980 <buf_offset>
  4010e1:	c6 05 20 65 20 00 72 	movb   $0x72,0x206520(%rip)        # 607608 <target_prefix>
  4010e8:	83 3d 99 58 20 00 00 	cmpl   $0x0,0x205899(%rip)        # 606988 <notify>
  4010ef:	0f 84 b1 00 00 00    	je     4011a6 <initialize_target+0x146>
  4010f5:	83 3d ec 58 20 00 00 	cmpl   $0x0,0x2058ec(%rip)        # 6069e8 <is_checker>
  4010fc:	0f 85 a4 00 00 00    	jne    4011a6 <initialize_target+0x146>
  401102:	be 00 01 00 00       	mov    $0x100,%esi
  401107:	48 89 e7             	mov    %rsp,%rdi
  40110a:	e8 81 fd ff ff       	callq  400e90 <gethostname@plt>
  40110f:	85 c0                	test   %eax,%eax
  401111:	74 25                	je     401138 <initialize_target+0xd8>
  401113:	bf f0 2f 40 00       	mov    $0x402ff0,%edi
  401118:	e8 d3 fb ff ff       	callq  400cf0 <puts@plt>
  40111d:	bf 08 00 00 00       	mov    $0x8,%edi
  401122:	e8 89 fd ff ff       	callq  400eb0 <exit@plt>
  401127:	48 89 e6             	mov    %rsp,%rsi
  40112a:	e8 71 fb ff ff       	callq  400ca0 <strcasecmp@plt>
  40112f:	85 c0                	test   %eax,%eax
  401131:	74 21                	je     401154 <initialize_target+0xf4>
  401133:	83 c3 01             	add    $0x1,%ebx
  401136:	eb 05                	jmp    40113d <initialize_target+0xdd>
  401138:	bb 00 00 00 00       	mov    $0x0,%ebx
  40113d:	48 63 c3             	movslq %ebx,%rax
  401140:	48 8b 3c c5 80 61 60 	mov    0x606180(,%rax,8),%rdi
  401147:	00 
  401148:	48 85 ff             	test   %rdi,%rdi
  40114b:	75 da                	jne    401127 <initialize_target+0xc7>
  40114d:	b8 00 00 00 00       	mov    $0x0,%eax
  401152:	eb 05                	jmp    401159 <initialize_target+0xf9>
  401154:	b8 01 00 00 00       	mov    $0x1,%eax
  401159:	85 c0                	test   %eax,%eax
  40115b:	75 17                	jne    401174 <initialize_target+0x114>
  40115d:	48 89 e6             	mov    %rsp,%rsi
  401160:	bf 28 30 40 00       	mov    $0x403028,%edi
  401165:	e8 b6 fb ff ff       	callq  400d20 <printf@plt>
  40116a:	bf 08 00 00 00       	mov    $0x8,%edi
  40116f:	e8 3c fd ff ff       	callq  400eb0 <exit@plt>
  401174:	48 8d bc 24 00 01 00 	lea    0x100(%rsp),%rdi
  40117b:	00 
  40117c:	e8 69 1a 00 00       	callq  402bea <init_driver>
  401181:	85 c0                	test   %eax,%eax
  401183:	79 21                	jns    4011a6 <initialize_target+0x146>
  401185:	48 8d b4 24 00 01 00 	lea    0x100(%rsp),%rsi
  40118c:	00 
  40118d:	bf 68 30 40 00       	mov    $0x403068,%edi
  401192:	b8 00 00 00 00       	mov    $0x0,%eax
  401197:	e8 84 fb ff ff       	callq  400d20 <printf@plt>
  40119c:	bf 08 00 00 00       	mov    $0x8,%edi
  4011a1:	e8 0a fd ff ff       	callq  400eb0 <exit@plt>
  4011a6:	48 81 c4 08 21 00 00 	add    $0x2108,%rsp
  4011ad:	5b                   	pop    %rbx
  4011ae:	5d                   	pop    %rbp
  4011af:	c3                   	retq   

00000000004011b0 <install_syscall_filter>:
  4011b0:	53                   	push   %rbx
  4011b1:	48 81 ec b0 00 00 00 	sub    $0xb0,%rsp
  4011b8:	89 fa                	mov    %edi,%edx
  4011ba:	48 8d 7c 24 10       	lea    0x10(%rsp),%rdi
  4011bf:	be e0 31 40 00       	mov    $0x4031e0,%esi
  4011c4:	b9 13 00 00 00       	mov    $0x13,%ecx
  4011c9:	f3 48 a5             	rep movsq %ds:(%rsi),%es:(%rdi)
  4011cc:	66 c7 04 24 13 00    	movw   $0x13,(%rsp)
  4011d2:	48 8d 44 24 10       	lea    0x10(%rsp),%rax
  4011d7:	48 89 44 24 08       	mov    %rax,0x8(%rsp)
  4011dc:	85 d2                	test   %edx,%edx
  4011de:	0f 84 90 00 00 00    	je     401274 <install_syscall_filter+0xc4>
  4011e4:	41 b8 00 00 00 00    	mov    $0x0,%r8d
  4011ea:	ba 00 00 00 00       	mov    $0x0,%edx
  4011ef:	be 01 00 00 00       	mov    $0x1,%esi
  4011f4:	bf 26 00 00 00       	mov    $0x26,%edi
  4011f9:	b8 00 00 00 00       	mov    $0x0,%eax
  4011fe:	e8 dd fb ff ff       	callq  400de0 <prctl@plt>
  401203:	85 c0                	test   %eax,%eax
  401205:	74 0c                	je     401213 <install_syscall_filter+0x63>
  401207:	bf 55 31 40 00       	mov    $0x403155,%edi
  40120c:	e8 4f fc ff ff       	callq  400e60 <perror@plt>
  401211:	eb 35                	jmp    401248 <install_syscall_filter+0x98>
  401213:	48 89 e2             	mov    %rsp,%rdx
  401216:	be 02 00 00 00       	mov    $0x2,%esi
  40121b:	bf 16 00 00 00       	mov    $0x16,%edi
  401220:	b8 00 00 00 00       	mov    $0x0,%eax
  401225:	e8 b6 fb ff ff       	callq  400de0 <prctl@plt>
  40122a:	89 c3                	mov    %eax,%ebx
  40122c:	85 c0                	test   %eax,%eax
  40122e:	74 0c                	je     40123c <install_syscall_filter+0x8c>
  401230:	bf 69 31 40 00       	mov    $0x403169,%edi
  401235:	e8 26 fc ff ff       	callq  400e60 <perror@plt>
  40123a:	eb 0c                	jmp    401248 <install_syscall_filter+0x98>
  40123c:	bf 78 31 40 00       	mov    $0x403178,%edi
  401241:	e8 aa fa ff ff       	callq  400cf0 <puts@plt>
  401246:	eb 38                	jmp    401280 <install_syscall_filter+0xd0>
  401248:	e8 63 fa ff ff       	callq  400cb0 <__errno_location@plt>
  40124d:	83 38 16             	cmpl   $0x16,(%rax)
  401250:	75 29                	jne    40127b <install_syscall_filter+0xcb>
  401252:	48 8b 0d 57 57 20 00 	mov    0x205757(%rip),%rcx        # 6069b0 <stderr@@GLIBC_2.2.5>
  401259:	ba 24 00 00 00       	mov    $0x24,%edx
  40125e:	be 01 00 00 00       	mov    $0x1,%esi
  401263:	bf 90 30 40 00       	mov    $0x403090,%edi
  401268:	e8 63 fc ff ff       	callq  400ed0 <fwrite@plt>
  40126d:	bb 01 00 00 00       	mov    $0x1,%ebx
  401272:	eb 0c                	jmp    401280 <install_syscall_filter+0xd0>
  401274:	bb 00 00 00 00       	mov    $0x0,%ebx
  401279:	eb 05                	jmp    401280 <install_syscall_filter+0xd0>
  40127b:	bb 01 00 00 00       	mov    $0x1,%ebx
  401280:	89 d8                	mov    %ebx,%eax
  401282:	48 81 c4 b0 00 00 00 	add    $0xb0,%rsp
  401289:	5b                   	pop    %rbx
  40128a:	c3                   	retq   

000000000040128b <main>:
  40128b:	41 56                	push   %r14
  40128d:	41 55                	push   %r13
  40128f:	41 54                	push   %r12
  401291:	55                   	push   %rbp
  401292:	53                   	push   %rbx
  401293:	41 89 fc             	mov    %edi,%r12d
  401296:	48 89 f3             	mov    %rsi,%rbx
  401299:	be 11 20 40 00       	mov    $0x402011,%esi
  40129e:	bf 0b 00 00 00       	mov    $0xb,%edi
  4012a3:	e8 d8 fa ff ff       	callq  400d80 <signal@plt>
  4012a8:	be c3 1f 40 00       	mov    $0x401fc3,%esi
  4012ad:	bf 07 00 00 00       	mov    $0x7,%edi
  4012b2:	e8 c9 fa ff ff       	callq  400d80 <signal@plt>
  4012b7:	be 5f 20 40 00       	mov    $0x40205f,%esi
  4012bc:	bf 04 00 00 00       	mov    $0x4,%edi
  4012c1:	e8 ba fa ff ff       	callq  400d80 <signal@plt>
  4012c6:	83 3d 1b 57 20 00 00 	cmpl   $0x0,0x20571b(%rip)        # 6069e8 <is_checker>
  4012cd:	74 20                	je     4012ef <main+0x64>
  4012cf:	be ad 20 40 00       	mov    $0x4020ad,%esi
  4012d4:	bf 0e 00 00 00       	mov    $0xe,%edi
  4012d9:	e8 a2 fa ff ff       	callq  400d80 <signal@plt>
  4012de:	bf 05 00 00 00       	mov    $0x5,%edi
  4012e3:	e8 58 fa ff ff       	callq  400d40 <alarm@plt>
  4012e8:	bd 96 31 40 00       	mov    $0x403196,%ebp
  4012ed:	eb 05                	jmp    4012f4 <main+0x69>
  4012ef:	bd 91 31 40 00       	mov    $0x403191,%ebp
  4012f4:	48 8b 05 a5 56 20 00 	mov    0x2056a5(%rip),%rax        # 6069a0 <stdin@@GLIBC_2.2.5>
  4012fb:	48 89 05 ce 56 20 00 	mov    %rax,0x2056ce(%rip)        # 6069d0 <infile>
  401302:	41 bd 00 00 00 00    	mov    $0x0,%r13d
  401308:	41 be 00 00 00 00    	mov    $0x0,%r14d
  40130e:	e9 b9 00 00 00       	jmpq   4013cc <main+0x141>
  401313:	83 e8 61             	sub    $0x61,%eax
  401316:	3c 10                	cmp    $0x10,%al
  401318:	0f 87 93 00 00 00    	ja     4013b1 <main+0x126>
  40131e:	0f b6 c0             	movzbl %al,%eax
  401321:	ff 24 c5 78 32 40 00 	jmpq   *0x403278(,%rax,8)
  401328:	48 8b 3b             	mov    (%rbx),%rdi
  40132b:	e8 b0 fc ff ff       	callq  400fe0 <usage>
  401330:	be 1b 43 40 00       	mov    $0x40431b,%esi
  401335:	48 8b 3d 6c 56 20 00 	mov    0x20566c(%rip),%rdi        # 6069a8 <optarg@@GLIBC_2.2.5>
  40133c:	e8 0f fb ff ff       	callq  400e50 <fopen@plt>
  401341:	48 89 05 88 56 20 00 	mov    %rax,0x205688(%rip)        # 6069d0 <infile>
  401348:	48 85 c0             	test   %rax,%rax
  40134b:	75 7f                	jne    4013cc <main+0x141>
  40134d:	48 8b 15 54 56 20 00 	mov    0x205654(%rip),%rdx        # 6069a8 <optarg@@GLIBC_2.2.5>
  401354:	be 9e 31 40 00       	mov    $0x40319e,%esi
  401359:	48 8b 3d 50 56 20 00 	mov    0x205650(%rip),%rdi        # 6069b0 <stderr@@GLIBC_2.2.5>
  401360:	e8 3b fa ff ff       	callq  400da0 <fprintf@plt>
  401365:	bb 01 00 00 00       	mov    $0x1,%ebx
  40136a:	e9 ed 00 00 00       	jmpq   40145c <main+0x1d1>
  40136f:	ba 10 00 00 00       	mov    $0x10,%edx
  401374:	be 00 00 00 00       	mov    $0x0,%esi
  401379:	48 8b 3d 28 56 20 00 	mov    0x205628(%rip),%rdi        # 6069a8 <optarg@@GLIBC_2.2.5>
  401380:	e8 fb fa ff ff       	callq  400e80 <strtoul@plt>
  401385:	41 89 c6             	mov    %eax,%r14d
  401388:	eb 42                	jmp    4013cc <main+0x141>
  40138a:	ba 0a 00 00 00       	mov    $0xa,%edx
  40138f:	be 00 00 00 00       	mov    $0x0,%esi
  401394:	48 8b 3d 0d 56 20 00 	mov    0x20560d(%rip),%rdi        # 6069a8 <optarg@@GLIBC_2.2.5>
  40139b:	e8 20 fa ff ff       	callq  400dc0 <strtol@plt>
  4013a0:	41 89 c5             	mov    %eax,%r13d
  4013a3:	eb 27                	jmp    4013cc <main+0x141>
  4013a5:	c7 05 d9 55 20 00 00 	movl   $0x0,0x2055d9(%rip)        # 606988 <notify>
  4013ac:	00 00 00 
  4013af:	eb 1b                	jmp    4013cc <main+0x141>
  4013b1:	40 0f be f6          	movsbl %sil,%esi
  4013b5:	bf bb 31 40 00       	mov    $0x4031bb,%edi
  4013ba:	b8 00 00 00 00       	mov    $0x0,%eax
  4013bf:	e8 5c f9 ff ff       	callq  400d20 <printf@plt>
  4013c4:	48 8b 3b             	mov    (%rbx),%rdi
  4013c7:	e8 14 fc ff ff       	callq  400fe0 <usage>
  4013cc:	48 89 ea             	mov    %rbp,%rdx
  4013cf:	48 89 de             	mov    %rbx,%rsi
  4013d2:	44 89 e7             	mov    %r12d,%edi
  4013d5:	e8 96 fa ff ff       	callq  400e70 <getopt@plt>
  4013da:	89 c6                	mov    %eax,%esi
  4013dc:	3c ff                	cmp    $0xff,%al
  4013de:	0f 85 2f ff ff ff    	jne    401313 <main+0x88>
  4013e4:	be 01 00 00 00       	mov    $0x1,%esi
  4013e9:	44 89 ef             	mov    %r13d,%edi
  4013ec:	e8 6f fc ff ff       	callq  401060 <initialize_target>
  4013f1:	83 3d f0 55 20 00 00 	cmpl   $0x0,0x2055f0(%rip)        # 6069e8 <is_checker>
  4013f8:	74 25                	je     40141f <main+0x194>
  4013fa:	44 3b 35 df 55 20 00 	cmp    0x2055df(%rip),%r14d        # 6069e0 <authkey>
  401401:	74 1c                	je     40141f <main+0x194>
  401403:	44 89 f6             	mov    %r14d,%esi
  401406:	bf b8 30 40 00       	mov    $0x4030b8,%edi
  40140b:	b8 00 00 00 00       	mov    $0x0,%eax
  401410:	e8 0b f9 ff ff       	callq  400d20 <printf@plt>
  401415:	b8 00 00 00 00       	mov    $0x0,%eax
  40141a:	e8 ac 08 00 00       	callq  401ccb <check_fail>
  40141f:	8b 35 bf 55 20 00    	mov    0x2055bf(%rip),%esi        # 6069e4 <cookie>
  401425:	bf ce 31 40 00       	mov    $0x4031ce,%edi
  40142a:	b8 00 00 00 00       	mov    $0x0,%eax
  40142f:	e8 ec f8 ff ff       	callq  400d20 <printf@plt>
  401434:	bf 00 00 00 00       	mov    $0x0,%edi
  401439:	b8 00 00 00 00       	mov    $0x0,%eax
  40143e:	e8 6d fd ff ff       	callq  4011b0 <install_syscall_filter>
  401443:	89 c3                	mov    %eax,%ebx
  401445:	85 c0                	test   %eax,%eax
  401447:	75 0e                	jne    401457 <main+0x1cc>
  401449:	48 8b 3d 30 55 20 00 	mov    0x205530(%rip),%rdi        # 606980 <buf_offset>
  401450:	e8 a6 0c 00 00       	callq  4020fb <launch>
  401455:	eb 05                	jmp    40145c <main+0x1d1>
  401457:	bb 01 00 00 00       	mov    $0x1,%ebx
  40145c:	89 d8                	mov    %ebx,%eax
  40145e:	5b                   	pop    %rbx
  40145f:	5d                   	pop    %rbp
  401460:	41 5c                	pop    %r12
  401462:	41 5d                	pop    %r13
  401464:	41 5e                	pop    %r14
  401466:	c3                   	retq   

0000000000401467 <scramble>:
  401467:	b8 00 00 00 00       	mov    $0x0,%eax
  40146c:	eb 11                	jmp    40147f <scramble+0x18>
  40146e:	69 c8 84 b7 00 00    	imul   $0xb784,%eax,%ecx
  401474:	01 f9                	add    %edi,%ecx
  401476:	89 c2                	mov    %eax,%edx
  401478:	89 4c 94 d0          	mov    %ecx,-0x30(%rsp,%rdx,4)
  40147c:	83 c0 01             	add    $0x1,%eax
  40147f:	83 f8 09             	cmp    $0x9,%eax
  401482:	76 ea                	jbe    40146e <scramble+0x7>
  401484:	8b 44 24 f0          	mov    -0x10(%rsp),%eax
  401488:	69 c0 fc ee 00 00    	imul   $0xeefc,%eax,%eax
  40148e:	89 44 24 f0          	mov    %eax,-0x10(%rsp)
  401492:	8b 44 24 d4          	mov    -0x2c(%rsp),%eax
  401496:	69 c0 44 af 00 00    	imul   $0xaf44,%eax,%eax
  40149c:	89 44 24 d4          	mov    %eax,-0x2c(%rsp)
  4014a0:	8b 44 24 e0          	mov    -0x20(%rsp),%eax
  4014a4:	69 c0 34 ce 00 00    	imul   $0xce34,%eax,%eax
  4014aa:	89 44 24 e0          	mov    %eax,-0x20(%rsp)
  4014ae:	8b 44 24 e8          	mov    -0x18(%rsp),%eax
  4014b2:	69 c0 e4 b9 00 00    	imul   $0xb9e4,%eax,%eax
  4014b8:	89 44 24 e8          	mov    %eax,-0x18(%rsp)
  4014bc:	8b 44 24 f4          	mov    -0xc(%rsp),%eax
  4014c0:	69 c0 75 84 00 00    	imul   $0x8475,%eax,%eax
  4014c6:	89 44 24 f4          	mov    %eax,-0xc(%rsp)
  4014ca:	8b 44 24 e4          	mov    -0x1c(%rsp),%eax
  4014ce:	69 c0 c2 c7 00 00    	imul   $0xc7c2,%eax,%eax
  4014d4:	89 44 24 e4          	mov    %eax,-0x1c(%rsp)
  4014d8:	8b 44 24 e4          	mov    -0x1c(%rsp),%eax
  4014dc:	69 c0 3c 60 00 00    	imul   $0x603c,%eax,%eax
  4014e2:	89 44 24 e4          	mov    %eax,-0x1c(%rsp)
  4014e6:	8b 44 24 f0          	mov    -0x10(%rsp),%eax
  4014ea:	69 c0 44 a2 00 00    	imul   $0xa244,%eax,%eax
  4014f0:	89 44 24 f0          	mov    %eax,-0x10(%rsp)
  4014f4:	8b 44 24 d0          	mov    -0x30(%rsp),%eax
  4014f8:	69 c0 a4 9e 00 00    	imul   $0x9ea4,%eax,%eax
  4014fe:	89 44 24 d0          	mov    %eax,-0x30(%rsp)
  401502:	8b 44 24 e8          	mov    -0x18(%rsp),%eax
  401506:	69 c0 21 0d 00 00    	imul   $0xd21,%eax,%eax
  40150c:	89 44 24 e8          	mov    %eax,-0x18(%rsp)
  401510:	8b 44 24 f0          	mov    -0x10(%rsp),%eax
  401514:	69 c0 59 69 00 00    	imul   $0x6959,%eax,%eax
  40151a:	89 44 24 f0          	mov    %eax,-0x10(%rsp)
  40151e:	8b 44 24 d0          	mov    -0x30(%rsp),%eax
  401522:	69 c0 d8 7a 00 00    	imul   $0x7ad8,%eax,%eax
  401528:	89 44 24 d0          	mov    %eax,-0x30(%rsp)
  40152c:	8b 44 24 d4          	mov    -0x2c(%rsp),%eax
  401530:	69 c0 2f fc 00 00    	imul   $0xfc2f,%eax,%eax
  401536:	89 44 24 d4          	mov    %eax,-0x2c(%rsp)
  40153a:	8b 44 24 dc          	mov    -0x24(%rsp),%eax
  40153e:	69 c0 19 dd 00 00    	imul   $0xdd19,%eax,%eax
  401544:	89 44 24 dc          	mov    %eax,-0x24(%rsp)
  401548:	8b 44 24 f4          	mov    -0xc(%rsp),%eax
  40154c:	69 c0 b0 35 00 00    	imul   $0x35b0,%eax,%eax
  401552:	89 44 24 f4          	mov    %eax,-0xc(%rsp)
  401556:	8b 44 24 d0          	mov    -0x30(%rsp),%eax
  40155a:	69 c0 92 32 00 00    	imul   $0x3292,%eax,%eax
  401560:	89 44 24 d0          	mov    %eax,-0x30(%rsp)
  401564:	8b 44 24 e0          	mov    -0x20(%rsp),%eax
  401568:	69 c0 cb 44 00 00    	imul   $0x44cb,%eax,%eax
  40156e:	89 44 24 e0          	mov    %eax,-0x20(%rsp)
  401572:	8b 44 24 e4          	mov    -0x1c(%rsp),%eax
  401576:	69 c0 39 3c 00 00    	imul   $0x3c39,%eax,%eax
  40157c:	89 44 24 e4          	mov    %eax,-0x1c(%rsp)
  401580:	8b 44 24 f4          	mov    -0xc(%rsp),%eax
  401584:	69 c0 80 68 00 00    	imul   $0x6880,%eax,%eax
  40158a:	89 44 24 f4          	mov    %eax,-0xc(%rsp)
  40158e:	8b 44 24 f4          	mov    -0xc(%rsp),%eax
  401592:	69 c0 21 ad 00 00    	imul   $0xad21,%eax,%eax
  401598:	89 44 24 f4          	mov    %eax,-0xc(%rsp)
  40159c:	8b 44 24 e8          	mov    -0x18(%rsp),%eax
  4015a0:	69 c0 b7 7f 00 00    	imul   $0x7fb7,%eax,%eax
  4015a6:	89 44 24 e8          	mov    %eax,-0x18(%rsp)
  4015aa:	8b 44 24 f4          	mov    -0xc(%rsp),%eax
  4015ae:	69 c0 78 34 00 00    	imul   $0x3478,%eax,%eax
  4015b4:	89 44 24 f4          	mov    %eax,-0xc(%rsp)
  4015b8:	8b 44 24 ec          	mov    -0x14(%rsp),%eax
  4015bc:	69 c0 63 12 00 00    	imul   $0x1263,%eax,%eax
  4015c2:	89 44 24 ec          	mov    %eax,-0x14(%rsp)
  4015c6:	8b 44 24 d4          	mov    -0x2c(%rsp),%eax
  4015ca:	69 c0 59 ca 00 00    	imul   $0xca59,%eax,%eax
  4015d0:	89 44 24 d4          	mov    %eax,-0x2c(%rsp)
  4015d4:	8b 44 24 e4          	mov    -0x1c(%rsp),%eax
  4015d8:	69 c0 6f 8a 00 00    	imul   $0x8a6f,%eax,%eax
  4015de:	89 44 24 e4          	mov    %eax,-0x1c(%rsp)
  4015e2:	8b 44 24 e4          	mov    -0x1c(%rsp),%eax
  4015e6:	69 c0 bc e8 00 00    	imul   $0xe8bc,%eax,%eax
  4015ec:	89 44 24 e4          	mov    %eax,-0x1c(%rsp)
  4015f0:	8b 44 24 e0          	mov    -0x20(%rsp),%eax
  4015f4:	69 c0 51 34 00 00    	imul   $0x3451,%eax,%eax
  4015fa:	89 44 24 e0          	mov    %eax,-0x20(%rsp)
  4015fe:	8b 44 24 f4          	mov    -0xc(%rsp),%eax
  401602:	69 c0 09 5f 00 00    	imul   $0x5f09,%eax,%eax
  401608:	89 44 24 f4          	mov    %eax,-0xc(%rsp)
  40160c:	8b 44 24 e8          	mov    -0x18(%rsp),%eax
  401610:	69 c0 e0 e4 00 00    	imul   $0xe4e0,%eax,%eax
  401616:	89 44 24 e8          	mov    %eax,-0x18(%rsp)
  40161a:	8b 44 24 e0          	mov    -0x20(%rsp),%eax
  40161e:	69 c0 8e ab 00 00    	imul   $0xab8e,%eax,%eax
  401624:	89 44 24 e0          	mov    %eax,-0x20(%rsp)
  401628:	8b 44 24 f0          	mov    -0x10(%rsp),%eax
  40162c:	69 c0 a4 c7 00 00    	imul   $0xc7a4,%eax,%eax
  401632:	89 44 24 f0          	mov    %eax,-0x10(%rsp)
  401636:	8b 44 24 e4          	mov    -0x1c(%rsp),%eax
  40163a:	69 c0 3c 3f 00 00    	imul   $0x3f3c,%eax,%eax
  401640:	89 44 24 e4          	mov    %eax,-0x1c(%rsp)
  401644:	8b 44 24 d4          	mov    -0x2c(%rsp),%eax
  401648:	69 c0 f6 bf 00 00    	imul   $0xbff6,%eax,%eax
  40164e:	89 44 24 d4          	mov    %eax,-0x2c(%rsp)
  401652:	8b 44 24 e0          	mov    -0x20(%rsp),%eax
  401656:	69 c0 6f 1f 00 00    	imul   $0x1f6f,%eax,%eax
  40165c:	89 44 24 e0          	mov    %eax,-0x20(%rsp)
  401660:	8b 44 24 e0          	mov    -0x20(%rsp),%eax
  401664:	69 c0 93 71 00 00    	imul   $0x7193,%eax,%eax
  40166a:	89 44 24 e0          	mov    %eax,-0x20(%rsp)
  40166e:	8b 44 24 d8          	mov    -0x28(%rsp),%eax
  401672:	69 c0 6b 15 00 00    	imul   $0x156b,%eax,%eax
  401678:	89 44 24 d8          	mov    %eax,-0x28(%rsp)
  40167c:	8b 44 24 d8          	mov    -0x28(%rsp),%eax
  401680:	69 c0 74 41 00 00    	imul   $0x4174,%eax,%eax
  401686:	89 44 24 d8          	mov    %eax,-0x28(%rsp)
  40168a:	8b 44 24 d4          	mov    -0x2c(%rsp),%eax
  40168e:	69 c0 3d d1 00 00    	imul   $0xd13d,%eax,%eax
  401694:	89 44 24 d4          	mov    %eax,-0x2c(%rsp)
  401698:	8b 44 24 d0          	mov    -0x30(%rsp),%eax
  40169c:	69 c0 a1 20 00 00    	imul   $0x20a1,%eax,%eax
  4016a2:	89 44 24 d0          	mov    %eax,-0x30(%rsp)
  4016a6:	8b 44 24 f0          	mov    -0x10(%rsp),%eax
  4016aa:	69 c0 df 04 00 00    	imul   $0x4df,%eax,%eax
  4016b0:	89 44 24 f0          	mov    %eax,-0x10(%rsp)
  4016b4:	8b 44 24 e4          	mov    -0x1c(%rsp),%eax
  4016b8:	69 c0 11 73 00 00    	imul   $0x7311,%eax,%eax
  4016be:	89 44 24 e4          	mov    %eax,-0x1c(%rsp)
  4016c2:	8b 44 24 d4          	mov    -0x2c(%rsp),%eax
  4016c6:	69 c0 d9 9e 00 00    	imul   $0x9ed9,%eax,%eax
  4016cc:	89 44 24 d4          	mov    %eax,-0x2c(%rsp)
  4016d0:	8b 44 24 d8          	mov    -0x28(%rsp),%eax
  4016d4:	69 c0 2f 51 00 00    	imul   $0x512f,%eax,%eax
  4016da:	89 44 24 d8          	mov    %eax,-0x28(%rsp)
  4016de:	8b 44 24 f4          	mov    -0xc(%rsp),%eax
  4016e2:	69 c0 e4 d7 00 00    	imul   $0xd7e4,%eax,%eax
  4016e8:	89 44 24 f4          	mov    %eax,-0xc(%rsp)
  4016ec:	8b 44 24 d8          	mov    -0x28(%rsp),%eax
  4016f0:	69 c0 05 3a 00 00    	imul   $0x3a05,%eax,%eax
  4016f6:	89 44 24 d8          	mov    %eax,-0x28(%rsp)
  4016fa:	8b 44 24 e4          	mov    -0x1c(%rsp),%eax
  4016fe:	69 c0 9f 50 00 00    	imul   $0x509f,%eax,%eax
  401704:	89 44 24 e4          	mov    %eax,-0x1c(%rsp)
  401708:	8b 44 24 d4          	mov    -0x2c(%rsp),%eax
  40170c:	69 c0 93 61 00 00    	imul   $0x6193,%eax,%eax
  401712:	89 44 24 d4          	mov    %eax,-0x2c(%rsp)
  401716:	8b 44 24 f4          	mov    -0xc(%rsp),%eax
  40171a:	69 c0 18 0e 00 00    	imul   $0xe18,%eax,%eax
  401720:	89 44 24 f4          	mov    %eax,-0xc(%rsp)
  401724:	8b 44 24 dc          	mov    -0x24(%rsp),%eax
  401728:	69 c0 51 0b 00 00    	imul   $0xb51,%eax,%eax
  40172e:	89 44 24 dc          	mov    %eax,-0x24(%rsp)
  401732:	8b 44 24 e8          	mov    -0x18(%rsp),%eax
  401736:	69 c0 00 4a 00 00    	imul   $0x4a00,%eax,%eax
  40173c:	89 44 24 e8          	mov    %eax,-0x18(%rsp)
  401740:	8b 44 24 d4          	mov    -0x2c(%rsp),%eax
  401744:	69 c0 18 fa 00 00    	imul   $0xfa18,%eax,%eax
  40174a:	89 44 24 d4          	mov    %eax,-0x2c(%rsp)
  40174e:	8b 44 24 f0          	mov    -0x10(%rsp),%eax
  401752:	69 c0 2e 6e 00 00    	imul   $0x6e2e,%eax,%eax
  401758:	89 44 24 f0          	mov    %eax,-0x10(%rsp)
  40175c:	8b 44 24 d4          	mov    -0x2c(%rsp),%eax
  401760:	69 c0 4f a9 00 00    	imul   $0xa94f,%eax,%eax
  401766:	89 44 24 d4          	mov    %eax,-0x2c(%rsp)
  40176a:	8b 44 24 e0          	mov    -0x20(%rsp),%eax
  40176e:	69 c0 64 8f 00 00    	imul   $0x8f64,%eax,%eax
  401774:	89 44 24 e0          	mov    %eax,-0x20(%rsp)
  401778:	8b 44 24 f4          	mov    -0xc(%rsp),%eax
  40177c:	69 c0 01 db 00 00    	imul   $0xdb01,%eax,%eax
  401782:	89 44 24 f4          	mov    %eax,-0xc(%rsp)
  401786:	8b 44 24 f4          	mov    -0xc(%rsp),%eax
  40178a:	69 c0 01 75 00 00    	imul   $0x7501,%eax,%eax
  401790:	89 44 24 f4          	mov    %eax,-0xc(%rsp)
  401794:	8b 44 24 f0          	mov    -0x10(%rsp),%eax
  401798:	69 c0 de 81 00 00    	imul   $0x81de,%eax,%eax
  40179e:	89 44 24 f0          	mov    %eax,-0x10(%rsp)
  4017a2:	8b 44 24 ec          	mov    -0x14(%rsp),%eax
  4017a6:	69 c0 76 f5 00 00    	imul   $0xf576,%eax,%eax
  4017ac:	89 44 24 ec          	mov    %eax,-0x14(%rsp)
  4017b0:	8b 44 24 d0          	mov    -0x30(%rsp),%eax
  4017b4:	69 c0 bd 11 00 00    	imul   $0x11bd,%eax,%eax
  4017ba:	89 44 24 d0          	mov    %eax,-0x30(%rsp)
  4017be:	8b 44 24 d8          	mov    -0x28(%rsp),%eax
  4017c2:	69 c0 1d 09 00 00    	imul   $0x91d,%eax,%eax
  4017c8:	89 44 24 d8          	mov    %eax,-0x28(%rsp)
  4017cc:	8b 44 24 e0          	mov    -0x20(%rsp),%eax
  4017d0:	69 c0 cc 50 00 00    	imul   $0x50cc,%eax,%eax
  4017d6:	89 44 24 e0          	mov    %eax,-0x20(%rsp)
  4017da:	8b 44 24 f4          	mov    -0xc(%rsp),%eax
  4017de:	69 c0 6b 4d 00 00    	imul   $0x4d6b,%eax,%eax
  4017e4:	89 44 24 f4          	mov    %eax,-0xc(%rsp)
  4017e8:	8b 44 24 d4          	mov    -0x2c(%rsp),%eax
  4017ec:	69 c0 98 e9 00 00    	imul   $0xe998,%eax,%eax
  4017f2:	89 44 24 d4          	mov    %eax,-0x2c(%rsp)
  4017f6:	8b 44 24 dc          	mov    -0x24(%rsp),%eax
  4017fa:	69 c0 e9 d3 00 00    	imul   $0xd3e9,%eax,%eax
  401800:	89 44 24 dc          	mov    %eax,-0x24(%rsp)
  401804:	8b 44 24 e4          	mov    -0x1c(%rsp),%eax
  401808:	69 c0 0b 89 00 00    	imul   $0x890b,%eax,%eax
  40180e:	89 44 24 e4          	mov    %eax,-0x1c(%rsp)
  401812:	8b 44 24 e4          	mov    -0x1c(%rsp),%eax
  401816:	69 c0 cd 71 00 00    	imul   $0x71cd,%eax,%eax
  40181c:	89 44 24 e4          	mov    %eax,-0x1c(%rsp)
  401820:	8b 44 24 f4          	mov    -0xc(%rsp),%eax
  401824:	69 c0 54 7d 00 00    	imul   $0x7d54,%eax,%eax
  40182a:	89 44 24 f4          	mov    %eax,-0xc(%rsp)
  40182e:	8b 44 24 d8          	mov    -0x28(%rsp),%eax
  401832:	69 c0 af be 00 00    	imul   $0xbeaf,%eax,%eax
  401838:	89 44 24 d8          	mov    %eax,-0x28(%rsp)
  40183c:	8b 44 24 f4          	mov    -0xc(%rsp),%eax
  401840:	69 c0 66 1f 00 00    	imul   $0x1f66,%eax,%eax
  401846:	89 44 24 f4          	mov    %eax,-0xc(%rsp)
  40184a:	8b 44 24 dc          	mov    -0x24(%rsp),%eax
  40184e:	69 c0 94 f0 00 00    	imul   $0xf094,%eax,%eax
  401854:	89 44 24 dc          	mov    %eax,-0x24(%rsp)
  401858:	8b 44 24 d4          	mov    -0x2c(%rsp),%eax
  40185c:	69 c0 56 e2 00 00    	imul   $0xe256,%eax,%eax
  401862:	89 44 24 d4          	mov    %eax,-0x2c(%rsp)
  401866:	8b 44 24 e0          	mov    -0x20(%rsp),%eax
  40186a:	69 c0 7a 48 00 00    	imul   $0x487a,%eax,%eax
  401870:	89 44 24 e0          	mov    %eax,-0x20(%rsp)
  401874:	8b 44 24 e0          	mov    -0x20(%rsp),%eax
  401878:	69 c0 70 79 00 00    	imul   $0x7970,%eax,%eax
  40187e:	89 44 24 e0          	mov    %eax,-0x20(%rsp)
  401882:	8b 44 24 ec          	mov    -0x14(%rsp),%eax
  401886:	69 c0 42 37 00 00    	imul   $0x3742,%eax,%eax
  40188c:	89 44 24 ec          	mov    %eax,-0x14(%rsp)
  401890:	8b 44 24 dc          	mov    -0x24(%rsp),%eax
  401894:	69 c0 4a 0b 00 00    	imul   $0xb4a,%eax,%eax
  40189a:	89 44 24 dc          	mov    %eax,-0x24(%rsp)
  40189e:	8b 44 24 dc          	mov    -0x24(%rsp),%eax
  4018a2:	69 c0 ef d6 00 00    	imul   $0xd6ef,%eax,%eax
  4018a8:	89 44 24 dc          	mov    %eax,-0x24(%rsp)
  4018ac:	8b 44 24 d0          	mov    -0x30(%rsp),%eax
  4018b0:	69 c0 1b 9a 00 00    	imul   $0x9a1b,%eax,%eax
  4018b6:	89 44 24 d0          	mov    %eax,-0x30(%rsp)
  4018ba:	8b 44 24 f4          	mov    -0xc(%rsp),%eax
  4018be:	69 c0 76 0e 00 00    	imul   $0xe76,%eax,%eax
  4018c4:	89 44 24 f4          	mov    %eax,-0xc(%rsp)
  4018c8:	8b 44 24 d4          	mov    -0x2c(%rsp),%eax
  4018cc:	69 c0 dd 7f 00 00    	imul   $0x7fdd,%eax,%eax
  4018d2:	89 44 24 d4          	mov    %eax,-0x2c(%rsp)
  4018d6:	8b 44 24 d0          	mov    -0x30(%rsp),%eax
  4018da:	69 c0 9c 78 00 00    	imul   $0x789c,%eax,%eax
  4018e0:	89 44 24 d0          	mov    %eax,-0x30(%rsp)
  4018e4:	8b 44 24 e4          	mov    -0x1c(%rsp),%eax
  4018e8:	8d 04 c0             	lea    (%rax,%rax,8),%eax
  4018eb:	c1 e0 03             	shl    $0x3,%eax
  4018ee:	89 44 24 e4          	mov    %eax,-0x1c(%rsp)
  4018f2:	8b 44 24 ec          	mov    -0x14(%rsp),%eax
  4018f6:	69 c0 0b 8c 00 00    	imul   $0x8c0b,%eax,%eax
  4018fc:	89 44 24 ec          	mov    %eax,-0x14(%rsp)
  401900:	8b 44 24 dc          	mov    -0x24(%rsp),%eax
  401904:	69 c0 64 ca 00 00    	imul   $0xca64,%eax,%eax
  40190a:	89 44 24 dc          	mov    %eax,-0x24(%rsp)
  40190e:	8b 44 24 e8          	mov    -0x18(%rsp),%eax
  401912:	69 c0 41 a4 00 00    	imul   $0xa441,%eax,%eax
  401918:	89 44 24 e8          	mov    %eax,-0x18(%rsp)
  40191c:	8b 44 24 f4          	mov    -0xc(%rsp),%eax
  401920:	69 c0 ce 98 00 00    	imul   $0x98ce,%eax,%eax
  401926:	89 44 24 f4          	mov    %eax,-0xc(%rsp)
  40192a:	8b 44 24 e4          	mov    -0x1c(%rsp),%eax
  40192e:	69 c0 32 e4 00 00    	imul   $0xe432,%eax,%eax
  401934:	89 44 24 e4          	mov    %eax,-0x1c(%rsp)
  401938:	8b 44 24 e8          	mov    -0x18(%rsp),%eax
  40193c:	69 c0 6b fa 00 00    	imul   $0xfa6b,%eax,%eax
  401942:	89 44 24 e8          	mov    %eax,-0x18(%rsp)
  401946:	8b 44 24 ec          	mov    -0x14(%rsp),%eax
  40194a:	69 c0 59 df 00 00    	imul   $0xdf59,%eax,%eax
  401950:	89 44 24 ec          	mov    %eax,-0x14(%rsp)
  401954:	8b 44 24 ec          	mov    -0x14(%rsp),%eax
  401958:	69 c0 9d 6a 00 00    	imul   $0x6a9d,%eax,%eax
  40195e:	89 44 24 ec          	mov    %eax,-0x14(%rsp)
  401962:	8b 44 24 f4          	mov    -0xc(%rsp),%eax
  401966:	69 c0 08 ff 00 00    	imul   $0xff08,%eax,%eax
  40196c:	89 44 24 f4          	mov    %eax,-0xc(%rsp)
  401970:	8b 44 24 e4          	mov    -0x1c(%rsp),%eax
  401974:	69 c0 fa 56 00 00    	imul   $0x56fa,%eax,%eax
  40197a:	89 44 24 e4          	mov    %eax,-0x1c(%rsp)
  40197e:	ba 00 00 00 00       	mov    $0x0,%edx
  401983:	b8 00 00 00 00       	mov    $0x0,%eax
  401988:	eb 0b                	jmp    401995 <scramble+0x52e>
  40198a:	89 d1                	mov    %edx,%ecx
  40198c:	8b 4c 8c d0          	mov    -0x30(%rsp,%rcx,4),%ecx
  401990:	01 c8                	add    %ecx,%eax
  401992:	83 c2 01             	add    $0x1,%edx
  401995:	83 fa 09             	cmp    $0x9,%edx
  401998:	76 f0                	jbe    40198a <scramble+0x523>
  40199a:	f3 c3                	repz retq 

000000000040199c <getbuf>:
  40199c:	48 83 ec 28          	sub    $0x28,%rsp
  4019a0:	48 89 e7             	mov    %rsp,%rdi
  4019a3:	e8 52 03 00 00       	callq  401cfa <Gets>
  4019a8:	b8 01 00 00 00       	mov    $0x1,%eax
  4019ad:	48 83 c4 28          	add    $0x28,%rsp
  4019b1:	c3                   	retq   

00000000004019b2 <touch1>:
  4019b2:	48 83 ec 08          	sub    $0x8,%rsp
  4019b6:	c7 05 1c 50 20 00 01 	movl   $0x1,0x20501c(%rip)        # 6069dc <vlevel>
  4019bd:	00 00 00 
  4019c0:	bf 64 43 40 00       	mov    $0x404364,%edi
  4019c5:	e8 26 f3 ff ff       	callq  400cf0 <puts@plt>
  4019ca:	bf 01 00 00 00       	mov    $0x1,%edi
  4019cf:	e8 15 05 00 00       	callq  401ee9 <validate>
  4019d4:	bf 00 00 00 00       	mov    $0x0,%edi
  4019d9:	e8 d2 f4 ff ff       	callq  400eb0 <exit@plt>

00000000004019de <touch2>:
  4019de:	48 83 ec 08          	sub    $0x8,%rsp
  4019e2:	89 fe                	mov    %edi,%esi
  4019e4:	c7 05 ee 4f 20 00 02 	movl   $0x2,0x204fee(%rip)        # 6069dc <vlevel>
  4019eb:	00 00 00 
  4019ee:	3b 3d f0 4f 20 00    	cmp    0x204ff0(%rip),%edi        # 6069e4 <cookie>
  4019f4:	75 1b                	jne    401a11 <touch2+0x33>
  4019f6:	bf 88 43 40 00       	mov    $0x404388,%edi
  4019fb:	b8 00 00 00 00       	mov    $0x0,%eax
  401a00:	e8 1b f3 ff ff       	callq  400d20 <printf@plt>
  401a05:	bf 02 00 00 00       	mov    $0x2,%edi
  401a0a:	e8 da 04 00 00       	callq  401ee9 <validate>
  401a0f:	eb 19                	jmp    401a2a <touch2+0x4c>
  401a11:	bf b0 43 40 00       	mov    $0x4043b0,%edi
  401a16:	b8 00 00 00 00       	mov    $0x0,%eax
  401a1b:	e8 00 f3 ff ff       	callq  400d20 <printf@plt>
  401a20:	bf 02 00 00 00       	mov    $0x2,%edi
  401a25:	e8 71 05 00 00       	callq  401f9b <fail>
  401a2a:	bf 00 00 00 00       	mov    $0x0,%edi
  401a2f:	e8 7c f4 ff ff       	callq  400eb0 <exit@plt>

0000000000401a34 <hexmatch>:
  401a34:	41 54                	push   %r12
  401a36:	55                   	push   %rbp
  401a37:	53                   	push   %rbx
  401a38:	48 83 ec 70          	sub    $0x70,%rsp
  401a3c:	41 89 fc             	mov    %edi,%r12d
  401a3f:	48 89 f5             	mov    %rsi,%rbp
  401a42:	e8 b9 f3 ff ff       	callq  400e00 <random@plt>
  401a47:	48 89 c1             	mov    %rax,%rcx
  401a4a:	48 ba 0b d7 a3 70 3d 	movabs $0xa3d70a3d70a3d70b,%rdx
  401a51:	0a d7 a3 
  401a54:	48 f7 ea             	imul   %rdx
  401a57:	48 8d 04 0a          	lea    (%rdx,%rcx,1),%rax
  401a5b:	48 c1 f8 06          	sar    $0x6,%rax
  401a5f:	48 89 ce             	mov    %rcx,%rsi
  401a62:	48 c1 fe 3f          	sar    $0x3f,%rsi
  401a66:	48 29 f0             	sub    %rsi,%rax
  401a69:	48 8d 04 80          	lea    (%rax,%rax,4),%rax
  401a6d:	48 8d 04 80          	lea    (%rax,%rax,4),%rax
  401a71:	48 c1 e0 02          	shl    $0x2,%rax
  401a75:	48 29 c1             	sub    %rax,%rcx
  401a78:	48 8d 1c 0c          	lea    (%rsp,%rcx,1),%rbx
  401a7c:	44 89 e2             	mov    %r12d,%edx
  401a7f:	be 81 43 40 00       	mov    $0x404381,%esi
  401a84:	48 89 df             	mov    %rbx,%rdi
  401a87:	b8 00 00 00 00       	mov    $0x0,%eax
  401a8c:	e8 0f f4 ff ff       	callq  400ea0 <sprintf@plt>
  401a91:	ba 09 00 00 00       	mov    $0x9,%edx
  401a96:	48 89 de             	mov    %rbx,%rsi
  401a99:	48 89 ef             	mov    %rbp,%rdi
  401a9c:	e8 2f f2 ff ff       	callq  400cd0 <strncmp@plt>
  401aa1:	85 c0                	test   %eax,%eax
  401aa3:	0f 94 c0             	sete   %al
  401aa6:	0f b6 c0             	movzbl %al,%eax
  401aa9:	48 83 c4 70          	add    $0x70,%rsp
  401aad:	5b                   	pop    %rbx
  401aae:	5d                   	pop    %rbp
  401aaf:	41 5c                	pop    %r12
  401ab1:	c3                   	retq   

0000000000401ab2 <touch3>:
  401ab2:	53                   	push   %rbx
  401ab3:	48 89 fb             	mov    %rdi,%rbx
  401ab6:	c7 05 1c 4f 20 00 03 	movl   $0x3,0x204f1c(%rip)        # 6069dc <vlevel>
  401abd:	00 00 00 
  401ac0:	48 89 fe             	mov    %rdi,%rsi
  401ac3:	8b 3d 1b 4f 20 00    	mov    0x204f1b(%rip),%edi        # 6069e4 <cookie>
  401ac9:	e8 66 ff ff ff       	callq  401a34 <hexmatch>
  401ace:	85 c0                	test   %eax,%eax
  401ad0:	74 1e                	je     401af0 <touch3+0x3e>
  401ad2:	48 89 de             	mov    %rbx,%rsi
  401ad5:	bf d8 43 40 00       	mov    $0x4043d8,%edi
  401ada:	b8 00 00 00 00       	mov    $0x0,%eax
  401adf:	e8 3c f2 ff ff       	callq  400d20 <printf@plt>
  401ae4:	bf 03 00 00 00       	mov    $0x3,%edi
  401ae9:	e8 fb 03 00 00       	callq  401ee9 <validate>
  401aee:	eb 1c                	jmp    401b0c <touch3+0x5a>
  401af0:	48 89 de             	mov    %rbx,%rsi
  401af3:	bf 00 44 40 00       	mov    $0x404400,%edi
  401af8:	b8 00 00 00 00       	mov    $0x0,%eax
  401afd:	e8 1e f2 ff ff       	callq  400d20 <printf@plt>
  401b02:	bf 03 00 00 00       	mov    $0x3,%edi
  401b07:	e8 8f 04 00 00       	callq  401f9b <fail>
  401b0c:	bf 00 00 00 00       	mov    $0x0,%edi
  401b11:	e8 9a f3 ff ff       	callq  400eb0 <exit@plt>

0000000000401b16 <test>:
  401b16:	48 83 ec 08          	sub    $0x8,%rsp
  401b1a:	b8 00 00 00 00       	mov    $0x0,%eax
  401b1f:	e8 78 fe ff ff       	callq  40199c <getbuf>
  401b24:	89 c6                	mov    %eax,%esi
  401b26:	bf 28 44 40 00       	mov    $0x404428,%edi
  401b2b:	b8 00 00 00 00       	mov    $0x0,%eax
  401b30:	e8 eb f1 ff ff       	callq  400d20 <printf@plt>
  401b35:	48 83 c4 08          	add    $0x8,%rsp
  401b39:	c3                   	retq   

0000000000401b3a <start_farm>:
  401b3a:	b8 01 00 00 00       	mov    $0x1,%eax
  401b3f:	c3                   	retq   

0000000000401b40 <getval_160>:
  401b40:	b8 15 49 89 c7       	mov    $0xc7894915,%eax
  401b45:	c3                   	retq   

0000000000401b46 <getval_153>:
  401b46:	b8 48 89 c7 90       	mov    $0x90c78948,%eax
  401b4b:	c3                   	retq   

0000000000401b4c <addval_396>:
  401b4c:	8d 87 50 90 90 c3    	lea    -0x3c6f6fb0(%rdi),%eax
  401b52:	c3                   	retq   

0000000000401b53 <getval_358>:
  401b53:	b8 78 c3 f2 df       	mov    $0xdff2c378,%eax
  401b58:	c3                   	retq   

0000000000401b59 <addval_278>:
  401b59:	8d 87 58 90 90 90    	lea    -0x6f6f6fa8(%rdi),%eax
  401b5f:	c3                   	retq   

0000000000401b60 <setval_292>:
  401b60:	c7 07 b1 95 0b 58    	movl   $0x580b95b1,(%rdi)
  401b66:	c3                   	retq   

0000000000401b67 <addval_174>:
  401b67:	8d 87 48 89 c7 c7    	lea    -0x383876b8(%rdi),%eax
  401b6d:	c3                   	retq   

0000000000401b6e <setval_393>:
  401b6e:	c7 07 48 89 c7 90    	movl   $0x90c78948,(%rdi)
  401b74:	c3                   	retq   

0000000000401b75 <mid_farm>:
  401b75:	b8 01 00 00 00       	mov    $0x1,%eax
  401b7a:	c3                   	retq   

0000000000401b7b <add_xy>:
  401b7b:	48 8d 04 37          	lea    (%rdi,%rsi,1),%rax
  401b7f:	c3                   	retq   

0000000000401b80 <setval_399>:
  401b80:	c7 07 89 c2 20 c0    	movl   $0xc020c289,(%rdi)
  401b86:	c3                   	retq   

0000000000401b87 <setval_281>:
  401b87:	c7 07 89 ce 20 db    	movl   $0xdb20ce89,(%rdi)
  401b8d:	c3                   	retq   

0000000000401b8e <setval_299>:
  401b8e:	c7 07 09 ce 20 c0    	movl   $0xc020ce09,(%rdi)
  401b94:	c3                   	retq   

0000000000401b95 <setval_170>:
  401b95:	c7 07 89 c2 90 90    	movl   $0x9090c289,(%rdi)
  401b9b:	c3                   	retq   

0000000000401b9c <getval_268>:
  401b9c:	b8 c8 89 d1 94       	mov    $0x94d189c8,%eax
  401ba1:	c3                   	retq   

0000000000401ba2 <addval_448>:
  401ba2:	8d 87 48 89 e0 c1    	lea    -0x3e1f76b8(%rdi),%eax
  401ba8:	c3                   	retq   

0000000000401ba9 <getval_215>:
  401ba9:	b8 c9 d1 84 c0       	mov    $0xc084d1c9,%eax
  401bae:	c3                   	retq   

0000000000401baf <setval_386>:
  401baf:	c7 07 89 c2 a4 db    	movl   $0xdba4c289,(%rdi)
  401bb5:	c3                   	retq   

0000000000401bb6 <addval_154>:
  401bb6:	8d 87 48 89 e0 c2    	lea    -0x3d1f76b8(%rdi),%eax
  401bbc:	c3                   	retq   

0000000000401bbd <addval_441>:
  401bbd:	8d 87 89 c2 94 d2    	lea    -0x2d6b3d77(%rdi),%eax
  401bc3:	c3                   	retq   

0000000000401bc4 <getval_225>:
  401bc4:	b8 48 89 e0 c7       	mov    $0xc7e08948,%eax
  401bc9:	c3                   	retq   

0000000000401bca <setval_404>:
  401bca:	c7 07 89 d1 c4 d2    	movl   $0xd2c4d189,(%rdi)
  401bd0:	c3                   	retq   

0000000000401bd1 <addval_204>:
  401bd1:	8d 87 89 ce c4 c9    	lea    -0x363b3177(%rdi),%eax
  401bd7:	c3                   	retq   

0000000000401bd8 <addval_492>:
  401bd8:	8d 87 c9 c2 90 90    	lea    -0x6f6f3d37(%rdi),%eax
  401bde:	c3                   	retq   

0000000000401bdf <setval_319>:
  401bdf:	c7 07 48 89 e0 90    	movl   $0x90e08948,(%rdi)
  401be5:	c3                   	retq   

0000000000401be6 <setval_432>:
  401be6:	c7 07 9f 81 d1 90    	movl   $0x90d1819f,(%rdi)
  401bec:	c3                   	retq   

0000000000401bed <getval_110>:
  401bed:	b8 0d 99 d1 90       	mov    $0x90d1990d,%eax
  401bf2:	c3                   	retq   

0000000000401bf3 <setval_251>:
  401bf3:	c7 07 48 89 e0 c7    	movl   $0xc7e08948,(%rdi)
  401bf9:	c3                   	retq   

0000000000401bfa <addval_236>:
  401bfa:	8d 87 c9 ce 20 c0    	lea    -0x3fdf3137(%rdi),%eax
  401c00:	c3                   	retq   

0000000000401c01 <addval_475>:
  401c01:	8d 87 1a 89 ce 91    	lea    -0x6e3176e6(%rdi),%eax
  401c07:	c3                   	retq   

0000000000401c08 <setval_349>:
  401c08:	c7 07 89 ce 00 db    	movl   $0xdb00ce89,(%rdi)
  401c0e:	c3                   	retq   

0000000000401c0f <getval_300>:
  401c0f:	b8 2f 89 ce c2       	mov    $0xc2ce892f,%eax
  401c14:	c3                   	retq   

0000000000401c15 <getval_389>:
  401c15:	b8 89 c2 a4 d2       	mov    $0xd2a4c289,%eax
  401c1a:	c3                   	retq   

0000000000401c1b <addval_212>:
  401c1b:	8d 87 89 d1 38 d2    	lea    -0x2dc72e77(%rdi),%eax
  401c21:	c3                   	retq   

0000000000401c22 <setval_247>:
  401c22:	c7 07 89 ce 08 c0    	movl   $0xc008ce89,(%rdi)
  401c28:	c3                   	retq   

0000000000401c29 <addval_461>:
  401c29:	8d 87 89 c2 30 d2    	lea    -0x2dcf3d77(%rdi),%eax
  401c2f:	c3                   	retq   

0000000000401c30 <getval_365>:
  401c30:	b8 88 c2 38 db       	mov    $0xdb38c288,%eax
  401c35:	c3                   	retq   

0000000000401c36 <getval_308>:
  401c36:	b8 48 89 e0 c2       	mov    $0xc2e08948,%eax
  401c3b:	c3                   	retq   

0000000000401c3c <setval_224>:
  401c3c:	c7 07 48 89 e0 c7    	movl   $0xc7e08948,(%rdi)
  401c42:	c3                   	retq   

0000000000401c43 <addval_105>:
  401c43:	8d 87 89 d1 08 d2    	lea    -0x2df72e77(%rdi),%eax
  401c49:	c3                   	retq   

0000000000401c4a <getval_295>:
  401c4a:	b8 c9 d1 90 90       	mov    $0x9090d1c9,%eax
  401c4f:	c3                   	retq   

0000000000401c50 <setval_446>:
  401c50:	c7 07 48 89 e0 c3    	movl   $0xc3e08948,(%rdi)
  401c56:	c3                   	retq   

0000000000401c57 <end_farm>:
  401c57:	b8 01 00 00 00       	mov    $0x1,%eax
  401c5c:	c3                   	retq   
  401c5d:	0f 1f 00             	nopl   (%rax)

0000000000401c60 <save_char>:
  401c60:	8b 05 9e 59 20 00    	mov    0x20599e(%rip),%eax        # 607604 <gets_cnt>
  401c66:	3d ff 03 00 00       	cmp    $0x3ff,%eax
  401c6b:	7f 49                	jg     401cb6 <save_char+0x56>
  401c6d:	8d 14 40             	lea    (%rax,%rax,2),%edx
  401c70:	89 f9                	mov    %edi,%ecx
  401c72:	c0 e9 04             	shr    $0x4,%cl
  401c75:	83 e1 0f             	and    $0xf,%ecx
  401c78:	0f b6 b1 50 47 40 00 	movzbl 0x404750(%rcx),%esi
  401c7f:	48 63 ca             	movslq %edx,%rcx
  401c82:	40 88 b1 00 6a 60 00 	mov    %sil,0x606a00(%rcx)
  401c89:	8d 4a 01             	lea    0x1(%rdx),%ecx
  401c8c:	83 e7 0f             	and    $0xf,%edi
  401c8f:	0f b6 b7 50 47 40 00 	movzbl 0x404750(%rdi),%esi
  401c96:	48 63 c9             	movslq %ecx,%rcx
  401c99:	40 88 b1 00 6a 60 00 	mov    %sil,0x606a00(%rcx)
  401ca0:	83 c2 02             	add    $0x2,%edx
  401ca3:	48 63 d2             	movslq %edx,%rdx
  401ca6:	c6 82 00 6a 60 00 20 	movb   $0x20,0x606a00(%rdx)
  401cad:	83 c0 01             	add    $0x1,%eax
  401cb0:	89 05 4e 59 20 00    	mov    %eax,0x20594e(%rip)        # 607604 <gets_cnt>
  401cb6:	f3 c3                	repz retq 

0000000000401cb8 <save_term>:
  401cb8:	8b 05 46 59 20 00    	mov    0x205946(%rip),%eax        # 607604 <gets_cnt>
  401cbe:	8d 04 40             	lea    (%rax,%rax,2),%eax
  401cc1:	48 98                	cltq   
  401cc3:	c6 80 00 6a 60 00 00 	movb   $0x0,0x606a00(%rax)
  401cca:	c3                   	retq   

0000000000401ccb <check_fail>:
  401ccb:	48 83 ec 08          	sub    $0x8,%rsp
  401ccf:	0f be 35 32 59 20 00 	movsbl 0x205932(%rip),%esi        # 607608 <target_prefix>
  401cd6:	b9 00 6a 60 00       	mov    $0x606a00,%ecx
  401cdb:	8b 15 f7 4c 20 00    	mov    0x204cf7(%rip),%edx        # 6069d8 <check_level>
  401ce1:	bf 4b 44 40 00       	mov    $0x40444b,%edi
  401ce6:	b8 00 00 00 00       	mov    $0x0,%eax
  401ceb:	e8 30 f0 ff ff       	callq  400d20 <printf@plt>
  401cf0:	bf 01 00 00 00       	mov    $0x1,%edi
  401cf5:	e8 b6 f1 ff ff       	callq  400eb0 <exit@plt>

0000000000401cfa <Gets>:
  401cfa:	41 54                	push   %r12
  401cfc:	55                   	push   %rbp
  401cfd:	53                   	push   %rbx
  401cfe:	49 89 fc             	mov    %rdi,%r12
  401d01:	c7 05 f9 58 20 00 00 	movl   $0x0,0x2058f9(%rip)        # 607604 <gets_cnt>
  401d08:	00 00 00 
  401d0b:	48 89 fb             	mov    %rdi,%rbx
  401d0e:	eb 11                	jmp    401d21 <Gets+0x27>
  401d10:	48 8d 6b 01          	lea    0x1(%rbx),%rbp
  401d14:	88 03                	mov    %al,(%rbx)
  401d16:	0f b6 f8             	movzbl %al,%edi
  401d19:	e8 42 ff ff ff       	callq  401c60 <save_char>
  401d1e:	48 89 eb             	mov    %rbp,%rbx
  401d21:	48 8b 3d a8 4c 20 00 	mov    0x204ca8(%rip),%rdi        # 6069d0 <infile>
  401d28:	e8 e3 f0 ff ff       	callq  400e10 <_IO_getc@plt>
  401d2d:	83 f8 ff             	cmp    $0xffffffff,%eax
  401d30:	74 05                	je     401d37 <Gets+0x3d>
  401d32:	83 f8 0a             	cmp    $0xa,%eax
  401d35:	75 d9                	jne    401d10 <Gets+0x16>
  401d37:	c6 03 00             	movb   $0x0,(%rbx)
  401d3a:	b8 00 00 00 00       	mov    $0x0,%eax
  401d3f:	e8 74 ff ff ff       	callq  401cb8 <save_term>
  401d44:	4c 89 e0             	mov    %r12,%rax
  401d47:	5b                   	pop    %rbx
  401d48:	5d                   	pop    %rbp
  401d49:	41 5c                	pop    %r12
  401d4b:	c3                   	retq   

0000000000401d4c <notify_server>:
  401d4c:	83 3d 95 4c 20 00 00 	cmpl   $0x0,0x204c95(%rip)        # 6069e8 <is_checker>
  401d53:	0f 85 8e 01 00 00    	jne    401ee7 <notify_server+0x19b>
  401d59:	53                   	push   %rbx
  401d5a:	48 81 ec 10 40 00 00 	sub    $0x4010,%rsp
  401d61:	89 fb                	mov    %edi,%ebx
  401d63:	8b 05 9b 58 20 00    	mov    0x20589b(%rip),%eax        # 607604 <gets_cnt>
  401d69:	83 c0 64             	add    $0x64,%eax
  401d6c:	3d 00 20 00 00       	cmp    $0x2000,%eax
  401d71:	7e 19                	jle    401d8c <notify_server+0x40>
  401d73:	bf 80 45 40 00       	mov    $0x404580,%edi
  401d78:	b8 00 00 00 00       	mov    $0x0,%eax
  401d7d:	e8 9e ef ff ff       	callq  400d20 <printf@plt>
  401d82:	bf 01 00 00 00       	mov    $0x1,%edi
  401d87:	e8 24 f1 ff ff       	callq  400eb0 <exit@plt>
  401d8c:	44 0f be 0d 74 58 20 	movsbl 0x205874(%rip),%r9d        # 607608 <target_prefix>
  401d93:	00 
  401d94:	83 3d ed 4b 20 00 00 	cmpl   $0x0,0x204bed(%rip)        # 606988 <notify>
  401d9b:	74 09                	je     401da6 <notify_server+0x5a>
  401d9d:	44 8b 05 3c 4c 20 00 	mov    0x204c3c(%rip),%r8d        # 6069e0 <authkey>
  401da4:	eb 06                	jmp    401dac <notify_server+0x60>
  401da6:	41 b8 ff ff ff ff    	mov    $0xffffffff,%r8d
  401dac:	85 db                	test   %ebx,%ebx
  401dae:	74 07                	je     401db7 <notify_server+0x6b>
  401db0:	b9 61 44 40 00       	mov    $0x404461,%ecx
  401db5:	eb 05                	jmp    401dbc <notify_server+0x70>
  401db7:	b9 66 44 40 00       	mov    $0x404466,%ecx
  401dbc:	48 c7 44 24 08 00 6a 	movq   $0x606a00,0x8(%rsp)
  401dc3:	60 00 
  401dc5:	89 34 24             	mov    %esi,(%rsp)
  401dc8:	8b 15 9a 43 20 00    	mov    0x20439a(%rip),%edx        # 606168 <target_id>
  401dce:	be 6b 44 40 00       	mov    $0x40446b,%esi
  401dd3:	48 8d bc 24 10 20 00 	lea    0x2010(%rsp),%rdi
  401dda:	00 
  401ddb:	b8 00 00 00 00       	mov    $0x0,%eax
  401de0:	e8 bb f0 ff ff       	callq  400ea0 <sprintf@plt>
  401de5:	83 3d 9c 4b 20 00 00 	cmpl   $0x0,0x204b9c(%rip)        # 606988 <notify>
  401dec:	74 78                	je     401e66 <notify_server+0x11a>
  401dee:	85 db                	test   %ebx,%ebx
  401df0:	74 68                	je     401e5a <notify_server+0x10e>
  401df2:	4c 8d 4c 24 10       	lea    0x10(%rsp),%r9
  401df7:	41 b8 00 00 00 00    	mov    $0x0,%r8d
  401dfd:	48 8d 8c 24 10 20 00 	lea    0x2010(%rsp),%rcx
  401e04:	00 
  401e05:	48 8b 15 64 43 20 00 	mov    0x204364(%rip),%rdx        # 606170 <lab>
  401e0c:	48 8b 35 65 43 20 00 	mov    0x204365(%rip),%rsi        # 606178 <course>
  401e13:	48 8b 3d 46 43 20 00 	mov    0x204346(%rip),%rdi        # 606160 <user_id>
  401e1a:	e8 94 0f 00 00       	callq  402db3 <driver_post>
  401e1f:	85 c0                	test   %eax,%eax
  401e21:	79 1e                	jns    401e41 <notify_server+0xf5>
  401e23:	48 8d 74 24 10       	lea    0x10(%rsp),%rsi
  401e28:	bf 87 44 40 00       	mov    $0x404487,%edi
  401e2d:	b8 00 00 00 00       	mov    $0x0,%eax
  401e32:	e8 e9 ee ff ff       	callq  400d20 <printf@plt>
  401e37:	bf 01 00 00 00       	mov    $0x1,%edi
  401e3c:	e8 6f f0 ff ff       	callq  400eb0 <exit@plt>
  401e41:	bf b0 45 40 00       	mov    $0x4045b0,%edi
  401e46:	e8 a5 ee ff ff       	callq  400cf0 <puts@plt>
  401e4b:	bf 93 44 40 00       	mov    $0x404493,%edi
  401e50:	e8 9b ee ff ff       	callq  400cf0 <puts@plt>
  401e55:	e9 85 00 00 00       	jmpq   401edf <notify_server+0x193>
  401e5a:	bf 9d 44 40 00       	mov    $0x40449d,%edi
  401e5f:	e8 8c ee ff ff       	callq  400cf0 <puts@plt>
  401e64:	eb 79                	jmp    401edf <notify_server+0x193>
  401e66:	85 db                	test   %ebx,%ebx
  401e68:	74 08                	je     401e72 <notify_server+0x126>
  401e6a:	be 61 44 40 00       	mov    $0x404461,%esi
  401e6f:	90                   	nop
  401e70:	eb 05                	jmp    401e77 <notify_server+0x12b>
  401e72:	be 66 44 40 00       	mov    $0x404466,%esi
  401e77:	bf e8 45 40 00       	mov    $0x4045e8,%edi
  401e7c:	b8 00 00 00 00       	mov    $0x0,%eax
  401e81:	e8 9a ee ff ff       	callq  400d20 <printf@plt>
  401e86:	48 8b 35 d3 42 20 00 	mov    0x2042d3(%rip),%rsi        # 606160 <user_id>
  401e8d:	bf a4 44 40 00       	mov    $0x4044a4,%edi
  401e92:	b8 00 00 00 00       	mov    $0x0,%eax
  401e97:	e8 84 ee ff ff       	callq  400d20 <printf@plt>
  401e9c:	48 8b 35 d5 42 20 00 	mov    0x2042d5(%rip),%rsi        # 606178 <course>
  401ea3:	bf b1 44 40 00       	mov    $0x4044b1,%edi
  401ea8:	b8 00 00 00 00       	mov    $0x0,%eax
  401ead:	e8 6e ee ff ff       	callq  400d20 <printf@plt>
  401eb2:	48 8b 35 b7 42 20 00 	mov    0x2042b7(%rip),%rsi        # 606170 <lab>
  401eb9:	bf bd 44 40 00       	mov    $0x4044bd,%edi
  401ebe:	b8 00 00 00 00       	mov    $0x0,%eax
  401ec3:	e8 58 ee ff ff       	callq  400d20 <printf@plt>
  401ec8:	48 8d b4 24 10 20 00 	lea    0x2010(%rsp),%rsi
  401ecf:	00 
  401ed0:	bf c6 44 40 00       	mov    $0x4044c6,%edi
  401ed5:	b8 00 00 00 00       	mov    $0x0,%eax
  401eda:	e8 41 ee ff ff       	callq  400d20 <printf@plt>
  401edf:	48 81 c4 10 40 00 00 	add    $0x4010,%rsp
  401ee6:	5b                   	pop    %rbx
  401ee7:	f3 c3                	repz retq 

0000000000401ee9 <validate>:
  401ee9:	53                   	push   %rbx
  401eea:	89 fb                	mov    %edi,%ebx
  401eec:	83 3d f5 4a 20 00 00 	cmpl   $0x0,0x204af5(%rip)        # 6069e8 <is_checker>
  401ef3:	74 60                	je     401f55 <validate+0x6c>
  401ef5:	39 3d e1 4a 20 00    	cmp    %edi,0x204ae1(%rip)        # 6069dc <vlevel>
  401efb:	74 14                	je     401f11 <validate+0x28>
  401efd:	bf d2 44 40 00       	mov    $0x4044d2,%edi
  401f02:	e8 e9 ed ff ff       	callq  400cf0 <puts@plt>
  401f07:	b8 00 00 00 00       	mov    $0x0,%eax
  401f0c:	e8 ba fd ff ff       	callq  401ccb <check_fail>
  401f11:	8b 35 c1 4a 20 00    	mov    0x204ac1(%rip),%esi        # 6069d8 <check_level>
  401f17:	39 fe                	cmp    %edi,%esi
  401f19:	74 1b                	je     401f36 <validate+0x4d>
  401f1b:	89 fa                	mov    %edi,%edx
  401f1d:	bf 10 46 40 00       	mov    $0x404610,%edi
  401f22:	b8 00 00 00 00       	mov    $0x0,%eax
  401f27:	e8 f4 ed ff ff       	callq  400d20 <printf@plt>
  401f2c:	b8 00 00 00 00       	mov    $0x0,%eax
  401f31:	e8 95 fd ff ff       	callq  401ccb <check_fail>
  401f36:	0f be 35 cb 56 20 00 	movsbl 0x2056cb(%rip),%esi        # 607608 <target_prefix>
  401f3d:	b9 00 6a 60 00       	mov    $0x606a00,%ecx
  401f42:	89 fa                	mov    %edi,%edx
  401f44:	bf f0 44 40 00       	mov    $0x4044f0,%edi
  401f49:	b8 00 00 00 00       	mov    $0x0,%eax
  401f4e:	e8 cd ed ff ff       	callq  400d20 <printf@plt>
  401f53:	eb 44                	jmp    401f99 <validate+0xb0>
  401f55:	39 3d 81 4a 20 00    	cmp    %edi,0x204a81(%rip)        # 6069dc <vlevel>
  401f5b:	74 18                	je     401f75 <validate+0x8c>
  401f5d:	bf d2 44 40 00       	mov    $0x4044d2,%edi
  401f62:	e8 89 ed ff ff       	callq  400cf0 <puts@plt>
  401f67:	89 de                	mov    %ebx,%esi
  401f69:	bf 00 00 00 00       	mov    $0x0,%edi
  401f6e:	e8 d9 fd ff ff       	callq  401d4c <notify_server>
  401f73:	eb 24                	jmp    401f99 <validate+0xb0>
  401f75:	0f be 15 8c 56 20 00 	movsbl 0x20568c(%rip),%edx        # 607608 <target_prefix>
  401f7c:	89 fe                	mov    %edi,%esi
  401f7e:	bf 38 46 40 00       	mov    $0x404638,%edi
  401f83:	b8 00 00 00 00       	mov    $0x0,%eax
  401f88:	e8 93 ed ff ff       	callq  400d20 <printf@plt>
  401f8d:	89 de                	mov    %ebx,%esi
  401f8f:	bf 01 00 00 00       	mov    $0x1,%edi
  401f94:	e8 b3 fd ff ff       	callq  401d4c <notify_server>
  401f99:	5b                   	pop    %rbx
  401f9a:	c3                   	retq   

0000000000401f9b <fail>:
  401f9b:	48 83 ec 08          	sub    $0x8,%rsp
  401f9f:	83 3d 42 4a 20 00 00 	cmpl   $0x0,0x204a42(%rip)        # 6069e8 <is_checker>
  401fa6:	74 0a                	je     401fb2 <fail+0x17>
  401fa8:	b8 00 00 00 00       	mov    $0x0,%eax
  401fad:	e8 19 fd ff ff       	callq  401ccb <check_fail>
  401fb2:	89 fe                	mov    %edi,%esi
  401fb4:	bf 00 00 00 00       	mov    $0x0,%edi
  401fb9:	e8 8e fd ff ff       	callq  401d4c <notify_server>
  401fbe:	48 83 c4 08          	add    $0x8,%rsp
  401fc2:	c3                   	retq   

0000000000401fc3 <bushandler>:
  401fc3:	48 83 ec 08          	sub    $0x8,%rsp
  401fc7:	83 3d 1a 4a 20 00 00 	cmpl   $0x0,0x204a1a(%rip)        # 6069e8 <is_checker>
  401fce:	74 14                	je     401fe4 <bushandler+0x21>
  401fd0:	bf 05 45 40 00       	mov    $0x404505,%edi
  401fd5:	e8 16 ed ff ff       	callq  400cf0 <puts@plt>
  401fda:	b8 00 00 00 00       	mov    $0x0,%eax
  401fdf:	e8 e7 fc ff ff       	callq  401ccb <check_fail>
  401fe4:	bf 70 46 40 00       	mov    $0x404670,%edi
  401fe9:	e8 02 ed ff ff       	callq  400cf0 <puts@plt>
  401fee:	bf 0f 45 40 00       	mov    $0x40450f,%edi
  401ff3:	e8 f8 ec ff ff       	callq  400cf0 <puts@plt>
  401ff8:	be 00 00 00 00       	mov    $0x0,%esi
  401ffd:	bf 00 00 00 00       	mov    $0x0,%edi
  402002:	e8 45 fd ff ff       	callq  401d4c <notify_server>
  402007:	bf 01 00 00 00       	mov    $0x1,%edi
  40200c:	e8 9f ee ff ff       	callq  400eb0 <exit@plt>

0000000000402011 <seghandler>:
  402011:	48 83 ec 08          	sub    $0x8,%rsp
  402015:	83 3d cc 49 20 00 00 	cmpl   $0x0,0x2049cc(%rip)        # 6069e8 <is_checker>
  40201c:	74 14                	je     402032 <seghandler+0x21>
  40201e:	bf 25 45 40 00       	mov    $0x404525,%edi
  402023:	e8 c8 ec ff ff       	callq  400cf0 <puts@plt>
  402028:	b8 00 00 00 00       	mov    $0x0,%eax
  40202d:	e8 99 fc ff ff       	callq  401ccb <check_fail>
  402032:	bf 90 46 40 00       	mov    $0x404690,%edi
  402037:	e8 b4 ec ff ff       	callq  400cf0 <puts@plt>
  40203c:	bf 0f 45 40 00       	mov    $0x40450f,%edi
  402041:	e8 aa ec ff ff       	callq  400cf0 <puts@plt>
  402046:	be 00 00 00 00       	mov    $0x0,%esi
  40204b:	bf 00 00 00 00       	mov    $0x0,%edi
  402050:	e8 f7 fc ff ff       	callq  401d4c <notify_server>
  402055:	bf 01 00 00 00       	mov    $0x1,%edi
  40205a:	e8 51 ee ff ff       	callq  400eb0 <exit@plt>

000000000040205f <illegalhandler>:
  40205f:	48 83 ec 08          	sub    $0x8,%rsp
  402063:	83 3d 7e 49 20 00 00 	cmpl   $0x0,0x20497e(%rip)        # 6069e8 <is_checker>
  40206a:	74 14                	je     402080 <illegalhandler+0x21>
  40206c:	bf 38 45 40 00       	mov    $0x404538,%edi
  402071:	e8 7a ec ff ff       	callq  400cf0 <puts@plt>
  402076:	b8 00 00 00 00       	mov    $0x0,%eax
  40207b:	e8 4b fc ff ff       	callq  401ccb <check_fail>
  402080:	bf b8 46 40 00       	mov    $0x4046b8,%edi
  402085:	e8 66 ec ff ff       	callq  400cf0 <puts@plt>
  40208a:	bf 0f 45 40 00       	mov    $0x40450f,%edi
  40208f:	e8 5c ec ff ff       	callq  400cf0 <puts@plt>
  402094:	be 00 00 00 00       	mov    $0x0,%esi
  402099:	bf 00 00 00 00       	mov    $0x0,%edi
  40209e:	e8 a9 fc ff ff       	callq  401d4c <notify_server>
  4020a3:	bf 01 00 00 00       	mov    $0x1,%edi
  4020a8:	e8 03 ee ff ff       	callq  400eb0 <exit@plt>

00000000004020ad <sigalrmhandler>:
  4020ad:	48 83 ec 08          	sub    $0x8,%rsp
  4020b1:	83 3d 30 49 20 00 00 	cmpl   $0x0,0x204930(%rip)        # 6069e8 <is_checker>
  4020b8:	74 14                	je     4020ce <sigalrmhandler+0x21>
  4020ba:	bf 4c 45 40 00       	mov    $0x40454c,%edi
  4020bf:	e8 2c ec ff ff       	callq  400cf0 <puts@plt>
  4020c4:	b8 00 00 00 00       	mov    $0x0,%eax
  4020c9:	e8 fd fb ff ff       	callq  401ccb <check_fail>
  4020ce:	be 05 00 00 00       	mov    $0x5,%esi
  4020d3:	bf e8 46 40 00       	mov    $0x4046e8,%edi
  4020d8:	b8 00 00 00 00       	mov    $0x0,%eax
  4020dd:	e8 3e ec ff ff       	callq  400d20 <printf@plt>
  4020e2:	be 00 00 00 00       	mov    $0x0,%esi
  4020e7:	bf 00 00 00 00       	mov    $0x0,%edi
  4020ec:	e8 5b fc ff ff       	callq  401d4c <notify_server>
  4020f1:	bf 01 00 00 00       	mov    $0x1,%edi
  4020f6:	e8 b5 ed ff ff       	callq  400eb0 <exit@plt>

00000000004020fb <launch>:
  4020fb:	55                   	push   %rbp
  4020fc:	48 89 e5             	mov    %rsp,%rbp
  4020ff:	48 89 fa             	mov    %rdi,%rdx
  402102:	48 8d 47 1e          	lea    0x1e(%rdi),%rax
  402106:	48 83 e0 f0          	and    $0xfffffffffffffff0,%rax
  40210a:	48 29 c4             	sub    %rax,%rsp
  40210d:	48 8d 7c 24 0f       	lea    0xf(%rsp),%rdi
  402112:	48 83 e7 f0          	and    $0xfffffffffffffff0,%rdi
  402116:	be f4 00 00 00       	mov    $0xf4,%esi
  40211b:	e8 10 ec ff ff       	callq  400d30 <memset@plt>
  402120:	48 8b 05 79 48 20 00 	mov    0x204879(%rip),%rax        # 6069a0 <stdin@@GLIBC_2.2.5>
  402127:	48 39 05 a2 48 20 00 	cmp    %rax,0x2048a2(%rip)        # 6069d0 <infile>
  40212e:	75 0f                	jne    40213f <launch+0x44>
  402130:	bf 54 45 40 00       	mov    $0x404554,%edi
  402135:	b8 00 00 00 00       	mov    $0x0,%eax
  40213a:	e8 e1 eb ff ff       	callq  400d20 <printf@plt>
  40213f:	c7 05 93 48 20 00 00 	movl   $0x0,0x204893(%rip)        # 6069dc <vlevel>
  402146:	00 00 00 
  402149:	b8 00 00 00 00       	mov    $0x0,%eax
  40214e:	e8 c3 f9 ff ff       	callq  401b16 <test>
  402153:	83 3d 8e 48 20 00 00 	cmpl   $0x0,0x20488e(%rip)        # 6069e8 <is_checker>
  40215a:	74 14                	je     402170 <launch+0x75>
  40215c:	bf 61 45 40 00       	mov    $0x404561,%edi
  402161:	e8 8a eb ff ff       	callq  400cf0 <puts@plt>
  402166:	b8 00 00 00 00       	mov    $0x0,%eax
  40216b:	e8 5b fb ff ff       	callq  401ccb <check_fail>
  402170:	bf 6c 45 40 00       	mov    $0x40456c,%edi
  402175:	e8 76 eb ff ff       	callq  400cf0 <puts@plt>
  40217a:	c9                   	leaveq 
  40217b:	c3                   	retq   

000000000040217c <stable_launch>:
  40217c:	53                   	push   %rbx
  40217d:	48 89 3d 44 48 20 00 	mov    %rdi,0x204844(%rip)        # 6069c8 <global_offset>
  402184:	41 b9 00 00 00 00    	mov    $0x0,%r9d
  40218a:	41 b8 00 00 00 00    	mov    $0x0,%r8d
  402190:	b9 32 01 00 00       	mov    $0x132,%ecx
  402195:	ba 07 00 00 00       	mov    $0x7,%edx
  40219a:	be 00 00 10 00       	mov    $0x100000,%esi
  40219f:	bf 00 60 58 55       	mov    $0x55586000,%edi
  4021a4:	e8 67 eb ff ff       	callq  400d10 <mmap@plt>
  4021a9:	48 89 c3             	mov    %rax,%rbx
  4021ac:	48 3d 00 60 58 55    	cmp    $0x55586000,%rax
  4021b2:	74 32                	je     4021e6 <stable_launch+0x6a>
  4021b4:	be 00 00 10 00       	mov    $0x100000,%esi
  4021b9:	48 89 c7             	mov    %rax,%rdi
  4021bc:	e8 6f ec ff ff       	callq  400e30 <munmap@plt>
  4021c1:	ba 00 60 58 55       	mov    $0x55586000,%edx
  4021c6:	be 20 47 40 00       	mov    $0x404720,%esi
  4021cb:	48 8b 3d de 47 20 00 	mov    0x2047de(%rip),%rdi        # 6069b0 <stderr@@GLIBC_2.2.5>
  4021d2:	b8 00 00 00 00       	mov    $0x0,%eax
  4021d7:	e8 c4 eb ff ff       	callq  400da0 <fprintf@plt>
  4021dc:	bf 01 00 00 00       	mov    $0x1,%edi
  4021e1:	e8 ca ec ff ff       	callq  400eb0 <exit@plt>
  4021e6:	48 8d 90 f8 ff 0f 00 	lea    0xffff8(%rax),%rdx
  4021ed:	48 89 15 1c 54 20 00 	mov    %rdx,0x20541c(%rip)        # 607610 <stack_top>
  4021f4:	48 89 e0             	mov    %rsp,%rax
  4021f7:	48 89 d4             	mov    %rdx,%rsp
  4021fa:	48 89 c2             	mov    %rax,%rdx
  4021fd:	48 89 15 bc 47 20 00 	mov    %rdx,0x2047bc(%rip)        # 6069c0 <global_save_stack>
  402204:	48 8b 3d bd 47 20 00 	mov    0x2047bd(%rip),%rdi        # 6069c8 <global_offset>
  40220b:	e8 eb fe ff ff       	callq  4020fb <launch>
  402210:	48 8b 05 a9 47 20 00 	mov    0x2047a9(%rip),%rax        # 6069c0 <global_save_stack>
  402217:	48 89 c4             	mov    %rax,%rsp
  40221a:	be 00 00 10 00       	mov    $0x100000,%esi
  40221f:	48 89 df             	mov    %rbx,%rdi
  402222:	e8 09 ec ff ff       	callq  400e30 <munmap@plt>
  402227:	5b                   	pop    %rbx
  402228:	c3                   	retq   
  402229:	0f 1f 80 00 00 00 00 	nopl   0x0(%rax)

0000000000402230 <rio_readinitb>:
  402230:	89 37                	mov    %esi,(%rdi)
  402232:	c7 47 04 00 00 00 00 	movl   $0x0,0x4(%rdi)
  402239:	48 8d 47 10          	lea    0x10(%rdi),%rax
  40223d:	48 89 47 08          	mov    %rax,0x8(%rdi)
  402241:	c3                   	retq   

0000000000402242 <sigalrm_handler>:
  402242:	48 83 ec 08          	sub    $0x8,%rsp
  402246:	ba 00 00 00 00       	mov    $0x0,%edx
  40224b:	be 60 47 40 00       	mov    $0x404760,%esi
  402250:	48 8b 3d 59 47 20 00 	mov    0x204759(%rip),%rdi        # 6069b0 <stderr@@GLIBC_2.2.5>
  402257:	b8 00 00 00 00       	mov    $0x0,%eax
  40225c:	e8 3f eb ff ff       	callq  400da0 <fprintf@plt>
  402261:	bf 01 00 00 00       	mov    $0x1,%edi
  402266:	e8 45 ec ff ff       	callq  400eb0 <exit@plt>

000000000040226b <urlencode>:
  40226b:	41 54                	push   %r12
  40226d:	55                   	push   %rbp
  40226e:	53                   	push   %rbx
  40226f:	48 83 ec 10          	sub    $0x10,%rsp
  402273:	48 89 fb             	mov    %rdi,%rbx
  402276:	48 89 f5             	mov    %rsi,%rbp
  402279:	b8 00 00 00 00       	mov    $0x0,%eax
  40227e:	48 c7 c1 ff ff ff ff 	mov    $0xffffffffffffffff,%rcx
  402285:	f2 ae                	repnz scas %es:(%rdi),%al
  402287:	48 f7 d1             	not    %rcx
  40228a:	8d 41 ff             	lea    -0x1(%rcx),%eax
  40228d:	e9 93 00 00 00       	jmpq   402325 <urlencode+0xba>
  402292:	0f b6 13             	movzbl (%rbx),%edx
  402295:	80 fa 2a             	cmp    $0x2a,%dl
  402298:	0f 94 c1             	sete   %cl
  40229b:	80 fa 2d             	cmp    $0x2d,%dl
  40229e:	0f 94 c0             	sete   %al
  4022a1:	08 c1                	or     %al,%cl
  4022a3:	75 1f                	jne    4022c4 <urlencode+0x59>
  4022a5:	80 fa 2e             	cmp    $0x2e,%dl
  4022a8:	74 1a                	je     4022c4 <urlencode+0x59>
  4022aa:	80 fa 5f             	cmp    $0x5f,%dl
  4022ad:	74 15                	je     4022c4 <urlencode+0x59>
  4022af:	8d 42 d0             	lea    -0x30(%rdx),%eax
  4022b2:	3c 09                	cmp    $0x9,%al
  4022b4:	76 0e                	jbe    4022c4 <urlencode+0x59>
  4022b6:	8d 42 bf             	lea    -0x41(%rdx),%eax
  4022b9:	3c 19                	cmp    $0x19,%al
  4022bb:	76 07                	jbe    4022c4 <urlencode+0x59>
  4022bd:	8d 42 9f             	lea    -0x61(%rdx),%eax
  4022c0:	3c 19                	cmp    $0x19,%al
  4022c2:	77 09                	ja     4022cd <urlencode+0x62>
  4022c4:	88 55 00             	mov    %dl,0x0(%rbp)
  4022c7:	48 8d 6d 01          	lea    0x1(%rbp),%rbp
  4022cb:	eb 51                	jmp    40231e <urlencode+0xb3>
  4022cd:	80 fa 20             	cmp    $0x20,%dl
  4022d0:	75 0a                	jne    4022dc <urlencode+0x71>
  4022d2:	c6 45 00 2b          	movb   $0x2b,0x0(%rbp)
  4022d6:	48 8d 6d 01          	lea    0x1(%rbp),%rbp
  4022da:	eb 42                	jmp    40231e <urlencode+0xb3>
  4022dc:	8d 42 e0             	lea    -0x20(%rdx),%eax
  4022df:	3c 5f                	cmp    $0x5f,%al
  4022e1:	0f 96 c1             	setbe  %cl
  4022e4:	80 fa 09             	cmp    $0x9,%dl
  4022e7:	0f 94 c0             	sete   %al
  4022ea:	08 c1                	or     %al,%cl
  4022ec:	74 45                	je     402333 <urlencode+0xc8>
  4022ee:	0f b6 d2             	movzbl %dl,%edx
  4022f1:	be f8 47 40 00       	mov    $0x4047f8,%esi
  4022f6:	48 89 e7             	mov    %rsp,%rdi
  4022f9:	b8 00 00 00 00       	mov    $0x0,%eax
  4022fe:	e8 9d eb ff ff       	callq  400ea0 <sprintf@plt>
  402303:	0f b6 04 24          	movzbl (%rsp),%eax
  402307:	88 45 00             	mov    %al,0x0(%rbp)
  40230a:	0f b6 44 24 01       	movzbl 0x1(%rsp),%eax
  40230f:	88 45 01             	mov    %al,0x1(%rbp)
  402312:	0f b6 44 24 02       	movzbl 0x2(%rsp),%eax
  402317:	88 45 02             	mov    %al,0x2(%rbp)
  40231a:	48 8d 6d 03          	lea    0x3(%rbp),%rbp
  40231e:	48 83 c3 01          	add    $0x1,%rbx
  402322:	44 89 e0             	mov    %r12d,%eax
  402325:	44 8d 60 ff          	lea    -0x1(%rax),%r12d
  402329:	85 c0                	test   %eax,%eax
  40232b:	0f 85 61 ff ff ff    	jne    402292 <urlencode+0x27>
  402331:	eb 05                	jmp    402338 <urlencode+0xcd>
  402333:	b8 ff ff ff ff       	mov    $0xffffffff,%eax
  402338:	48 83 c4 10          	add    $0x10,%rsp
  40233c:	5b                   	pop    %rbx
  40233d:	5d                   	pop    %rbp
  40233e:	41 5c                	pop    %r12
  402340:	c3                   	retq   

0000000000402341 <rio_writen>:
  402341:	41 55                	push   %r13
  402343:	41 54                	push   %r12
  402345:	55                   	push   %rbp
  402346:	53                   	push   %rbx
  402347:	48 83 ec 08          	sub    $0x8,%rsp
  40234b:	41 89 fc             	mov    %edi,%r12d
  40234e:	48 89 f5             	mov    %rsi,%rbp
  402351:	49 89 d5             	mov    %rdx,%r13
  402354:	48 89 d3             	mov    %rdx,%rbx
  402357:	eb 28                	jmp    402381 <rio_writen+0x40>
  402359:	48 89 da             	mov    %rbx,%rdx
  40235c:	48 89 ee             	mov    %rbp,%rsi
  40235f:	44 89 e7             	mov    %r12d,%edi
  402362:	e8 99 e9 ff ff       	callq  400d00 <write@plt>
  402367:	48 85 c0             	test   %rax,%rax
  40236a:	7f 0f                	jg     40237b <rio_writen+0x3a>
  40236c:	e8 3f e9 ff ff       	callq  400cb0 <__errno_location@plt>
  402371:	83 38 04             	cmpl   $0x4,(%rax)
  402374:	75 15                	jne    40238b <rio_writen+0x4a>
  402376:	b8 00 00 00 00       	mov    $0x0,%eax
  40237b:	48 29 c3             	sub    %rax,%rbx
  40237e:	48 01 c5             	add    %rax,%rbp
  402381:	48 85 db             	test   %rbx,%rbx
  402384:	75 d3                	jne    402359 <rio_writen+0x18>
  402386:	4c 89 e8             	mov    %r13,%rax
  402389:	eb 07                	jmp    402392 <rio_writen+0x51>
  40238b:	48 c7 c0 ff ff ff ff 	mov    $0xffffffffffffffff,%rax
  402392:	48 83 c4 08          	add    $0x8,%rsp
  402396:	5b                   	pop    %rbx
  402397:	5d                   	pop    %rbp
  402398:	41 5c                	pop    %r12
  40239a:	41 5d                	pop    %r13
  40239c:	c3                   	retq   

000000000040239d <rio_read>:
  40239d:	41 56                	push   %r14
  40239f:	41 55                	push   %r13
  4023a1:	41 54                	push   %r12
  4023a3:	55                   	push   %rbp
  4023a4:	53                   	push   %rbx
  4023a5:	48 89 fb             	mov    %rdi,%rbx
  4023a8:	49 89 f6             	mov    %rsi,%r14
  4023ab:	49 89 d5             	mov    %rdx,%r13
  4023ae:	4c 8d 67 10          	lea    0x10(%rdi),%r12
  4023b2:	eb 2a                	jmp    4023de <rio_read+0x41>
  4023b4:	ba 00 20 00 00       	mov    $0x2000,%edx
  4023b9:	4c 89 e6             	mov    %r12,%rsi
  4023bc:	8b 3b                	mov    (%rbx),%edi
  4023be:	e8 9d e9 ff ff       	callq  400d60 <read@plt>
  4023c3:	89 43 04             	mov    %eax,0x4(%rbx)
  4023c6:	85 c0                	test   %eax,%eax
  4023c8:	79 0c                	jns    4023d6 <rio_read+0x39>
  4023ca:	e8 e1 e8 ff ff       	callq  400cb0 <__errno_location@plt>
  4023cf:	83 38 04             	cmpl   $0x4,(%rax)
  4023d2:	74 0a                	je     4023de <rio_read+0x41>
  4023d4:	eb 37                	jmp    40240d <rio_read+0x70>
  4023d6:	85 c0                	test   %eax,%eax
  4023d8:	74 3c                	je     402416 <rio_read+0x79>
  4023da:	4c 89 63 08          	mov    %r12,0x8(%rbx)
  4023de:	8b 6b 04             	mov    0x4(%rbx),%ebp
  4023e1:	85 ed                	test   %ebp,%ebp
  4023e3:	7e cf                	jle    4023b4 <rio_read+0x17>
  4023e5:	89 e8                	mov    %ebp,%eax
  4023e7:	4c 39 e8             	cmp    %r13,%rax
  4023ea:	72 03                	jb     4023ef <rio_read+0x52>
  4023ec:	44 89 ed             	mov    %r13d,%ebp
  4023ef:	4c 63 e5             	movslq %ebp,%r12
  4023f2:	48 8b 73 08          	mov    0x8(%rbx),%rsi
  4023f6:	4c 89 e2             	mov    %r12,%rdx
  4023f9:	4c 89 f7             	mov    %r14,%rdi
  4023fc:	e8 cf e9 ff ff       	callq  400dd0 <memcpy@plt>
  402401:	4c 01 63 08          	add    %r12,0x8(%rbx)
  402405:	29 6b 04             	sub    %ebp,0x4(%rbx)
  402408:	4c 89 e0             	mov    %r12,%rax
  40240b:	eb 0e                	jmp    40241b <rio_read+0x7e>
  40240d:	48 c7 c0 ff ff ff ff 	mov    $0xffffffffffffffff,%rax
  402414:	eb 05                	jmp    40241b <rio_read+0x7e>
  402416:	b8 00 00 00 00       	mov    $0x0,%eax
  40241b:	5b                   	pop    %rbx
  40241c:	5d                   	pop    %rbp
  40241d:	41 5c                	pop    %r12
  40241f:	41 5d                	pop    %r13
  402421:	41 5e                	pop    %r14
  402423:	c3                   	retq   

0000000000402424 <rio_readlineb>:
  402424:	41 55                	push   %r13
  402426:	41 54                	push   %r12
  402428:	55                   	push   %rbp
  402429:	53                   	push   %rbx
  40242a:	48 83 ec 18          	sub    $0x18,%rsp
  40242e:	49 89 fd             	mov    %rdi,%r13
  402431:	48 89 f5             	mov    %rsi,%rbp
  402434:	49 89 d4             	mov    %rdx,%r12
  402437:	bb 01 00 00 00       	mov    $0x1,%ebx
  40243c:	eb 3d                	jmp    40247b <rio_readlineb+0x57>
  40243e:	ba 01 00 00 00       	mov    $0x1,%edx
  402443:	48 8d 74 24 0f       	lea    0xf(%rsp),%rsi
  402448:	4c 89 ef             	mov    %r13,%rdi
  40244b:	e8 4d ff ff ff       	callq  40239d <rio_read>
  402450:	83 f8 01             	cmp    $0x1,%eax
  402453:	75 12                	jne    402467 <rio_readlineb+0x43>
  402455:	48 8d 55 01          	lea    0x1(%rbp),%rdx
  402459:	0f b6 44 24 0f       	movzbl 0xf(%rsp),%eax
  40245e:	88 45 00             	mov    %al,0x0(%rbp)
  402461:	3c 0a                	cmp    $0xa,%al
  402463:	75 0f                	jne    402474 <rio_readlineb+0x50>
  402465:	eb 1b                	jmp    402482 <rio_readlineb+0x5e>
  402467:	85 c0                	test   %eax,%eax
  402469:	75 23                	jne    40248e <rio_readlineb+0x6a>
  40246b:	48 83 fb 01          	cmp    $0x1,%rbx
  40246f:	90                   	nop
  402470:	75 13                	jne    402485 <rio_readlineb+0x61>
  402472:	eb 23                	jmp    402497 <rio_readlineb+0x73>
  402474:	48 83 c3 01          	add    $0x1,%rbx
  402478:	48 89 d5             	mov    %rdx,%rbp
  40247b:	4c 39 e3             	cmp    %r12,%rbx
  40247e:	72 be                	jb     40243e <rio_readlineb+0x1a>
  402480:	eb 03                	jmp    402485 <rio_readlineb+0x61>
  402482:	48 89 d5             	mov    %rdx,%rbp
  402485:	c6 45 00 00          	movb   $0x0,0x0(%rbp)
  402489:	48 89 d8             	mov    %rbx,%rax
  40248c:	eb 0e                	jmp    40249c <rio_readlineb+0x78>
  40248e:	48 c7 c0 ff ff ff ff 	mov    $0xffffffffffffffff,%rax
  402495:	eb 05                	jmp    40249c <rio_readlineb+0x78>
  402497:	b8 00 00 00 00       	mov    $0x0,%eax
  40249c:	48 83 c4 18          	add    $0x18,%rsp
  4024a0:	5b                   	pop    %rbx
  4024a1:	5d                   	pop    %rbp
  4024a2:	41 5c                	pop    %r12
  4024a4:	41 5d                	pop    %r13
  4024a6:	c3                   	retq   

00000000004024a7 <submitr>:
  4024a7:	41 57                	push   %r15
  4024a9:	41 56                	push   %r14
  4024ab:	41 55                	push   %r13
  4024ad:	41 54                	push   %r12
  4024af:	55                   	push   %rbp
  4024b0:	53                   	push   %rbx
  4024b1:	48 81 ec 48 a0 00 00 	sub    $0xa048,%rsp
  4024b8:	49 89 fc             	mov    %rdi,%r12
  4024bb:	89 74 24 04          	mov    %esi,0x4(%rsp)
  4024bf:	49 89 d7             	mov    %rdx,%r15
  4024c2:	49 89 ce             	mov    %rcx,%r14
  4024c5:	4c 89 44 24 08       	mov    %r8,0x8(%rsp)
  4024ca:	4d 89 cd             	mov    %r9,%r13
  4024cd:	48 8b 9c 24 80 a0 00 	mov    0xa080(%rsp),%rbx
  4024d4:	00 
  4024d5:	c7 84 24 1c 20 00 00 	movl   $0x0,0x201c(%rsp)
  4024dc:	00 00 00 00 
  4024e0:	ba 00 00 00 00       	mov    $0x0,%edx
  4024e5:	be 01 00 00 00       	mov    $0x1,%esi
  4024ea:	bf 02 00 00 00       	mov    $0x2,%edi
  4024ef:	e8 ec e9 ff ff       	callq  400ee0 <socket@plt>
  4024f4:	89 c5                	mov    %eax,%ebp
  4024f6:	85 c0                	test   %eax,%eax
  4024f8:	79 4e                	jns    402548 <submitr+0xa1>
  4024fa:	48 b8 45 72 72 6f 72 	movabs $0x43203a726f727245,%rax
  402501:	3a 20 43 
  402504:	48 89 03             	mov    %rax,(%rbx)
  402507:	48 b8 6c 69 65 6e 74 	movabs $0x6e7520746e65696c,%rax
  40250e:	20 75 6e 
  402511:	48 89 43 08          	mov    %rax,0x8(%rbx)
  402515:	48 b8 61 62 6c 65 20 	movabs $0x206f7420656c6261,%rax
  40251c:	74 6f 20 
  40251f:	48 89 43 10          	mov    %rax,0x10(%rbx)
  402523:	48 b8 63 72 65 61 74 	movabs $0x7320657461657263,%rax
  40252a:	65 20 73 
  40252d:	48 89 43 18          	mov    %rax,0x18(%rbx)
  402531:	c7 43 20 6f 63 6b 65 	movl   $0x656b636f,0x20(%rbx)
  402538:	66 c7 43 24 74 00    	movw   $0x74,0x24(%rbx)
  40253e:	b8 ff ff ff ff       	mov    $0xffffffff,%eax
  402543:	e9 68 06 00 00       	jmpq   402bb0 <submitr+0x709>
  402548:	4c 89 e7             	mov    %r12,%rdi
  40254b:	e8 40 e8 ff ff       	callq  400d90 <gethostbyname@plt>
  402550:	48 85 c0             	test   %rax,%rax
  402553:	75 67                	jne    4025bc <submitr+0x115>
  402555:	48 b8 45 72 72 6f 72 	movabs $0x44203a726f727245,%rax
  40255c:	3a 20 44 
  40255f:	48 89 03             	mov    %rax,(%rbx)
  402562:	48 b8 4e 53 20 69 73 	movabs $0x6e7520736920534e,%rax
  402569:	20 75 6e 
  40256c:	48 89 43 08          	mov    %rax,0x8(%rbx)
  402570:	48 b8 61 62 6c 65 20 	movabs $0x206f7420656c6261,%rax
  402577:	74 6f 20 
  40257a:	48 89 43 10          	mov    %rax,0x10(%rbx)
  40257e:	48 b8 72 65 73 6f 6c 	movabs $0x2065766c6f736572,%rax
  402585:	76 65 20 
  402588:	48 89 43 18          	mov    %rax,0x18(%rbx)
  40258c:	48 b8 73 65 72 76 65 	movabs $0x6120726576726573,%rax
  402593:	72 20 61 
  402596:	48 89 43 20          	mov    %rax,0x20(%rbx)
  40259a:	c7 43 28 64 64 72 65 	movl   $0x65726464,0x28(%rbx)
  4025a1:	66 c7 43 2c 73 73    	movw   $0x7373,0x2c(%rbx)
  4025a7:	c6 43 2e 00          	movb   $0x0,0x2e(%rbx)
  4025ab:	89 ef                	mov    %ebp,%edi
  4025ad:	e8 9e e7 ff ff       	callq  400d50 <close@plt>
  4025b2:	b8 ff ff ff ff       	mov    $0xffffffff,%eax
  4025b7:	e9 f4 05 00 00       	jmpq   402bb0 <submitr+0x709>
  4025bc:	48 c7 84 24 30 a0 00 	movq   $0x0,0xa030(%rsp)
  4025c3:	00 00 00 00 00 
  4025c8:	48 c7 84 24 38 a0 00 	movq   $0x0,0xa038(%rsp)
  4025cf:	00 00 00 00 00 
  4025d4:	66 c7 84 24 30 a0 00 	movw   $0x2,0xa030(%rsp)
  4025db:	00 02 00 
  4025de:	48 8b 48 18          	mov    0x18(%rax),%rcx
  4025e2:	48 63 50 14          	movslq 0x14(%rax),%rdx
  4025e6:	48 8d b4 24 34 a0 00 	lea    0xa034(%rsp),%rsi
  4025ed:	00 
  4025ee:	48 8b 39             	mov    (%rcx),%rdi
  4025f1:	e8 4a e8 ff ff       	callq  400e40 <bcopy@plt>
  4025f6:	0f b7 44 24 04       	movzwl 0x4(%rsp),%eax
  4025fb:	66 c1 c8 08          	ror    $0x8,%ax
  4025ff:	66 89 84 24 32 a0 00 	mov    %ax,0xa032(%rsp)
  402606:	00 
  402607:	ba 10 00 00 00       	mov    $0x10,%edx
  40260c:	48 8d b4 24 30 a0 00 	lea    0xa030(%rsp),%rsi
  402613:	00 
  402614:	89 ef                	mov    %ebp,%edi
  402616:	e8 a5 e8 ff ff       	callq  400ec0 <connect@plt>
  40261b:	85 c0                	test   %eax,%eax
  40261d:	79 59                	jns    402678 <submitr+0x1d1>
  40261f:	48 b8 45 72 72 6f 72 	movabs $0x55203a726f727245,%rax
  402626:	3a 20 55 
  402629:	48 89 03             	mov    %rax,(%rbx)
  40262c:	48 b8 6e 61 62 6c 65 	movabs $0x6f7420656c62616e,%rax
  402633:	20 74 6f 
  402636:	48 89 43 08          	mov    %rax,0x8(%rbx)
  40263a:	48 b8 20 63 6f 6e 6e 	movabs $0x7463656e6e6f6320,%rax
  402641:	65 63 74 
  402644:	48 89 43 10          	mov    %rax,0x10(%rbx)
  402648:	48 b8 20 74 6f 20 74 	movabs $0x20656874206f7420,%rax
  40264f:	68 65 20 
  402652:	48 89 43 18          	mov    %rax,0x18(%rbx)
  402656:	c7 43 20 73 65 72 76 	movl   $0x76726573,0x20(%rbx)
  40265d:	66 c7 43 24 65 72    	movw   $0x7265,0x24(%rbx)
  402663:	c6 43 26 00          	movb   $0x0,0x26(%rbx)
  402667:	89 ef                	mov    %ebp,%edi
  402669:	e8 e2 e6 ff ff       	callq  400d50 <close@plt>
  40266e:	b8 ff ff ff ff       	mov    $0xffffffff,%eax
  402673:	e9 38 05 00 00       	jmpq   402bb0 <submitr+0x709>
  402678:	48 c7 c2 ff ff ff ff 	mov    $0xffffffffffffffff,%rdx
  40267f:	4c 89 ef             	mov    %r13,%rdi
  402682:	b8 00 00 00 00       	mov    $0x0,%eax
  402687:	48 89 d1             	mov    %rdx,%rcx
  40268a:	f2 ae                	repnz scas %es:(%rdi),%al
  40268c:	48 f7 d1             	not    %rcx
  40268f:	48 89 ce             	mov    %rcx,%rsi
  402692:	4c 89 ff             	mov    %r15,%rdi
  402695:	48 89 d1             	mov    %rdx,%rcx
  402698:	f2 ae                	repnz scas %es:(%rdi),%al
  40269a:	48 f7 d1             	not    %rcx
  40269d:	49 89 c8             	mov    %rcx,%r8
  4026a0:	4c 89 f7             	mov    %r14,%rdi
  4026a3:	48 89 d1             	mov    %rdx,%rcx
  4026a6:	f2 ae                	repnz scas %es:(%rdi),%al
  4026a8:	49 29 c8             	sub    %rcx,%r8
  4026ab:	48 8b 7c 24 08       	mov    0x8(%rsp),%rdi
  4026b0:	48 89 d1             	mov    %rdx,%rcx
  4026b3:	f2 ae                	repnz scas %es:(%rdi),%al
  4026b5:	49 29 c8             	sub    %rcx,%r8
  4026b8:	48 8d 44 76 fd       	lea    -0x3(%rsi,%rsi,2),%rax
  4026bd:	49 8d 44 00 7b       	lea    0x7b(%r8,%rax,1),%rax
  4026c2:	48 3d 00 20 00 00    	cmp    $0x2000,%rax
  4026c8:	76 72                	jbe    40273c <submitr+0x295>
  4026ca:	48 b8 45 72 72 6f 72 	movabs $0x52203a726f727245,%rax
  4026d1:	3a 20 52 
  4026d4:	48 89 03             	mov    %rax,(%rbx)
  4026d7:	48 b8 65 73 75 6c 74 	movabs $0x747320746c757365,%rax
  4026de:	20 73 74 
  4026e1:	48 89 43 08          	mov    %rax,0x8(%rbx)
  4026e5:	48 b8 72 69 6e 67 20 	movabs $0x6f6f7420676e6972,%rax
  4026ec:	74 6f 6f 
  4026ef:	48 89 43 10          	mov    %rax,0x10(%rbx)
  4026f3:	48 b8 20 6c 61 72 67 	movabs $0x202e656772616c20,%rax
  4026fa:	65 2e 20 
  4026fd:	48 89 43 18          	mov    %rax,0x18(%rbx)
  402701:	48 b8 49 6e 63 72 65 	movabs $0x6573616572636e49,%rax
  402708:	61 73 65 
  40270b:	48 89 43 20          	mov    %rax,0x20(%rbx)
  40270f:	48 b8 20 53 55 42 4d 	movabs $0x5254494d42555320,%rax
  402716:	49 54 52 
  402719:	48 89 43 28          	mov    %rax,0x28(%rbx)
  40271d:	48 b8 5f 4d 41 58 42 	movabs $0x46554258414d5f,%rax
  402724:	55 46 00 
  402727:	48 89 43 30          	mov    %rax,0x30(%rbx)
  40272b:	89 ef                	mov    %ebp,%edi
  40272d:	e8 1e e6 ff ff       	callq  400d50 <close@plt>
  402732:	b8 ff ff ff ff       	mov    $0xffffffff,%eax
  402737:	e9 74 04 00 00       	jmpq   402bb0 <submitr+0x709>
  40273c:	48 8d b4 24 20 40 00 	lea    0x4020(%rsp),%rsi
  402743:	00 
  402744:	b9 00 04 00 00       	mov    $0x400,%ecx
  402749:	b8 00 00 00 00       	mov    $0x0,%eax
  40274e:	48 89 f7             	mov    %rsi,%rdi
  402751:	f3 48 ab             	rep stos %rax,%es:(%rdi)
  402754:	4c 89 ef             	mov    %r13,%rdi
  402757:	e8 0f fb ff ff       	callq  40226b <urlencode>
  40275c:	85 c0                	test   %eax,%eax
  40275e:	0f 89 8a 00 00 00    	jns    4027ee <submitr+0x347>
  402764:	48 b8 45 72 72 6f 72 	movabs $0x52203a726f727245,%rax
  40276b:	3a 20 52 
  40276e:	48 89 03             	mov    %rax,(%rbx)
  402771:	48 b8 65 73 75 6c 74 	movabs $0x747320746c757365,%rax
  402778:	20 73 74 
  40277b:	48 89 43 08          	mov    %rax,0x8(%rbx)
  40277f:	48 b8 72 69 6e 67 20 	movabs $0x6e6f6320676e6972,%rax
  402786:	63 6f 6e 
  402789:	48 89 43 10          	mov    %rax,0x10(%rbx)
  40278d:	48 b8 74 61 69 6e 73 	movabs $0x6e6120736e696174,%rax
  402794:	20 61 6e 
  402797:	48 89 43 18          	mov    %rax,0x18(%rbx)
  40279b:	48 b8 20 69 6c 6c 65 	movabs $0x6c6167656c6c6920,%rax
  4027a2:	67 61 6c 
  4027a5:	48 89 43 20          	mov    %rax,0x20(%rbx)
  4027a9:	48 b8 20 6f 72 20 75 	movabs $0x72706e7520726f20,%rax
  4027b0:	6e 70 72 
  4027b3:	48 89 43 28          	mov    %rax,0x28(%rbx)
  4027b7:	48 b8 69 6e 74 61 62 	movabs $0x20656c6261746e69,%rax
  4027be:	6c 65 20 
  4027c1:	48 89 43 30          	mov    %rax,0x30(%rbx)
  4027c5:	48 b8 63 68 61 72 61 	movabs $0x6574636172616863,%rax
  4027cc:	63 74 65 
  4027cf:	48 89 43 38          	mov    %rax,0x38(%rbx)
  4027d3:	66 c7 43 40 72 2e    	movw   $0x2e72,0x40(%rbx)
  4027d9:	c6 43 42 00          	movb   $0x0,0x42(%rbx)
  4027dd:	89 ef                	mov    %ebp,%edi
  4027df:	e8 6c e5 ff ff       	callq  400d50 <close@plt>
  4027e4:	b8 ff ff ff ff       	mov    $0xffffffff,%eax
  4027e9:	e9 c2 03 00 00       	jmpq   402bb0 <submitr+0x709>
  4027ee:	4d 89 e1             	mov    %r12,%r9
  4027f1:	4c 8d 84 24 20 40 00 	lea    0x4020(%rsp),%r8
  4027f8:	00 
  4027f9:	4c 89 f9             	mov    %r15,%rcx
  4027fc:	4c 89 f2             	mov    %r14,%rdx
  4027ff:	be 88 47 40 00       	mov    $0x404788,%esi
  402804:	48 8d bc 24 20 60 00 	lea    0x6020(%rsp),%rdi
  40280b:	00 
  40280c:	b8 00 00 00 00       	mov    $0x0,%eax
  402811:	e8 8a e6 ff ff       	callq  400ea0 <sprintf@plt>
  402816:	48 8d bc 24 20 60 00 	lea    0x6020(%rsp),%rdi
  40281d:	00 
  40281e:	b8 00 00 00 00       	mov    $0x0,%eax
  402823:	48 c7 c1 ff ff ff ff 	mov    $0xffffffffffffffff,%rcx
  40282a:	f2 ae                	repnz scas %es:(%rdi),%al
  40282c:	48 f7 d1             	not    %rcx
  40282f:	48 8d 51 ff          	lea    -0x1(%rcx),%rdx
  402833:	48 8d b4 24 20 60 00 	lea    0x6020(%rsp),%rsi
  40283a:	00 
  40283b:	89 ef                	mov    %ebp,%edi
  40283d:	e8 ff fa ff ff       	callq  402341 <rio_writen>
  402842:	48 85 c0             	test   %rax,%rax
  402845:	79 6e                	jns    4028b5 <submitr+0x40e>
  402847:	48 b8 45 72 72 6f 72 	movabs $0x43203a726f727245,%rax
  40284e:	3a 20 43 
  402851:	48 89 03             	mov    %rax,(%rbx)
  402854:	48 b8 6c 69 65 6e 74 	movabs $0x6e7520746e65696c,%rax
  40285b:	20 75 6e 
  40285e:	48 89 43 08          	mov    %rax,0x8(%rbx)
  402862:	48 b8 61 62 6c 65 20 	movabs $0x206f7420656c6261,%rax
  402869:	74 6f 20 
  40286c:	48 89 43 10          	mov    %rax,0x10(%rbx)
  402870:	48 b8 77 72 69 74 65 	movabs $0x6f74206574697277,%rax
  402877:	20 74 6f 
  40287a:	48 89 43 18          	mov    %rax,0x18(%rbx)
  40287e:	48 b8 20 74 68 65 20 	movabs $0x7365722065687420,%rax
  402885:	72 65 73 
  402888:	48 89 43 20          	mov    %rax,0x20(%rbx)
  40288c:	48 b8 75 6c 74 20 73 	movabs $0x7672657320746c75,%rax
  402893:	65 72 76 
  402896:	48 89 43 28          	mov    %rax,0x28(%rbx)
  40289a:	66 c7 43 30 65 72    	movw   $0x7265,0x30(%rbx)
  4028a0:	c6 43 32 00          	movb   $0x0,0x32(%rbx)
  4028a4:	89 ef                	mov    %ebp,%edi
  4028a6:	e8 a5 e4 ff ff       	callq  400d50 <close@plt>
  4028ab:	b8 ff ff ff ff       	mov    $0xffffffff,%eax
  4028b0:	e9 fb 02 00 00       	jmpq   402bb0 <submitr+0x709>
  4028b5:	89 ee                	mov    %ebp,%esi
  4028b7:	48 8d bc 24 20 80 00 	lea    0x8020(%rsp),%rdi
  4028be:	00 
  4028bf:	e8 6c f9 ff ff       	callq  402230 <rio_readinitb>
  4028c4:	ba 00 20 00 00       	mov    $0x2000,%edx
  4028c9:	48 8d b4 24 20 60 00 	lea    0x6020(%rsp),%rsi
  4028d0:	00 
  4028d1:	48 8d bc 24 20 80 00 	lea    0x8020(%rsp),%rdi
  4028d8:	00 
  4028d9:	e8 46 fb ff ff       	callq  402424 <rio_readlineb>
  4028de:	48 85 c0             	test   %rax,%rax
  4028e1:	7f 7d                	jg     402960 <submitr+0x4b9>
  4028e3:	48 b8 45 72 72 6f 72 	movabs $0x43203a726f727245,%rax
  4028ea:	3a 20 43 
  4028ed:	48 89 03             	mov    %rax,(%rbx)
  4028f0:	48 b8 6c 69 65 6e 74 	movabs $0x6e7520746e65696c,%rax
  4028f7:	20 75 6e 
  4028fa:	48 89 43 08          	mov    %rax,0x8(%rbx)
  4028fe:	48 b8 61 62 6c 65 20 	movabs $0x206f7420656c6261,%rax
  402905:	74 6f 20 
  402908:	48 89 43 10          	mov    %rax,0x10(%rbx)
  40290c:	48 b8 72 65 61 64 20 	movabs $0x7269662064616572,%rax
  402913:	66 69 72 
  402916:	48 89 43 18          	mov    %rax,0x18(%rbx)
  40291a:	48 b8 73 74 20 68 65 	movabs $0x6564616568207473,%rax
  402921:	61 64 65 
  402924:	48 89 43 20          	mov    %rax,0x20(%rbx)
  402928:	48 b8 72 20 66 72 6f 	movabs $0x72206d6f72662072,%rax
  40292f:	6d 20 72 
  402932:	48 89 43 28          	mov    %rax,0x28(%rbx)
  402936:	48 b8 65 73 75 6c 74 	movabs $0x657320746c757365,%rax
  40293d:	20 73 65 
  402940:	48 89 43 30          	mov    %rax,0x30(%rbx)
  402944:	c7 43 38 72 76 65 72 	movl   $0x72657672,0x38(%rbx)
  40294b:	c6 43 3c 00          	movb   $0x0,0x3c(%rbx)
  40294f:	89 ef                	mov    %ebp,%edi
  402951:	e8 fa e3 ff ff       	callq  400d50 <close@plt>
  402956:	b8 ff ff ff ff       	mov    $0xffffffff,%eax
  40295b:	e9 50 02 00 00       	jmpq   402bb0 <submitr+0x709>
  402960:	4c 8d 44 24 10       	lea    0x10(%rsp),%r8
  402965:	48 8d 8c 24 1c 20 00 	lea    0x201c(%rsp),%rcx
  40296c:	00 
  40296d:	48 8d 94 24 20 20 00 	lea    0x2020(%rsp),%rdx
  402974:	00 
  402975:	be ff 47 40 00       	mov    $0x4047ff,%esi
  40297a:	48 8d bc 24 20 60 00 	lea    0x6020(%rsp),%rdi
  402981:	00 
  402982:	b8 00 00 00 00       	mov    $0x0,%eax
  402987:	e8 94 e4 ff ff       	callq  400e20 <__isoc99_sscanf@plt>
  40298c:	e9 98 00 00 00       	jmpq   402a29 <submitr+0x582>
  402991:	ba 00 20 00 00       	mov    $0x2000,%edx
  402996:	48 8d b4 24 20 60 00 	lea    0x6020(%rsp),%rsi
  40299d:	00 
  40299e:	48 8d bc 24 20 80 00 	lea    0x8020(%rsp),%rdi
  4029a5:	00 
  4029a6:	e8 79 fa ff ff       	callq  402424 <rio_readlineb>
  4029ab:	48 85 c0             	test   %rax,%rax
  4029ae:	7f 79                	jg     402a29 <submitr+0x582>
  4029b0:	48 b8 45 72 72 6f 72 	movabs $0x43203a726f727245,%rax
  4029b7:	3a 20 43 
  4029ba:	48 89 03             	mov    %rax,(%rbx)
  4029bd:	48 b8 6c 69 65 6e 74 	movabs $0x6e7520746e65696c,%rax
  4029c4:	20 75 6e 
  4029c7:	48 89 43 08          	mov    %rax,0x8(%rbx)
  4029cb:	48 b8 61 62 6c 65 20 	movabs $0x206f7420656c6261,%rax
  4029d2:	74 6f 20 
  4029d5:	48 89 43 10          	mov    %rax,0x10(%rbx)
  4029d9:	48 b8 72 65 61 64 20 	movabs $0x6165682064616572,%rax
  4029e0:	68 65 61 
  4029e3:	48 89 43 18          	mov    %rax,0x18(%rbx)
  4029e7:	48 b8 64 65 72 73 20 	movabs $0x6f72662073726564,%rax
  4029ee:	66 72 6f 
  4029f1:	48 89 43 20          	mov    %rax,0x20(%rbx)
  4029f5:	48 b8 6d 20 74 68 65 	movabs $0x657220656874206d,%rax
  4029fc:	20 72 65 
  4029ff:	48 89 43 28          	mov    %rax,0x28(%rbx)
  402a03:	48 b8 73 75 6c 74 20 	movabs $0x72657320746c7573,%rax
  402a0a:	73 65 72 
  402a0d:	48 89 43 30          	mov    %rax,0x30(%rbx)
  402a11:	c7 43 38 76 65 72 00 	movl   $0x726576,0x38(%rbx)
  402a18:	89 ef                	mov    %ebp,%edi
  402a1a:	e8 31 e3 ff ff       	callq  400d50 <close@plt>
  402a1f:	b8 ff ff ff ff       	mov    $0xffffffff,%eax
  402a24:	e9 87 01 00 00       	jmpq   402bb0 <submitr+0x709>
  402a29:	0f b6 84 24 20 60 00 	movzbl 0x6020(%rsp),%eax
  402a30:	00 
  402a31:	83 e8 0d             	sub    $0xd,%eax
  402a34:	75 15                	jne    402a4b <submitr+0x5a4>
  402a36:	0f b6 84 24 21 60 00 	movzbl 0x6021(%rsp),%eax
  402a3d:	00 
  402a3e:	83 e8 0a             	sub    $0xa,%eax
  402a41:	75 08                	jne    402a4b <submitr+0x5a4>
  402a43:	0f b6 84 24 22 60 00 	movzbl 0x6022(%rsp),%eax
  402a4a:	00 
  402a4b:	85 c0                	test   %eax,%eax
  402a4d:	0f 85 3e ff ff ff    	jne    402991 <submitr+0x4ea>
  402a53:	ba 00 20 00 00       	mov    $0x2000,%edx
  402a58:	48 8d b4 24 20 60 00 	lea    0x6020(%rsp),%rsi
  402a5f:	00 
  402a60:	48 8d bc 24 20 80 00 	lea    0x8020(%rsp),%rdi
  402a67:	00 
  402a68:	e8 b7 f9 ff ff       	callq  402424 <rio_readlineb>
  402a6d:	48 85 c0             	test   %rax,%rax
  402a70:	0f 8f 83 00 00 00    	jg     402af9 <submitr+0x652>
  402a76:	48 b8 45 72 72 6f 72 	movabs $0x43203a726f727245,%rax
  402a7d:	3a 20 43 
  402a80:	48 89 03             	mov    %rax,(%rbx)
  402a83:	48 b8 6c 69 65 6e 74 	movabs $0x6e7520746e65696c,%rax
  402a8a:	20 75 6e 
  402a8d:	48 89 43 08          	mov    %rax,0x8(%rbx)
  402a91:	48 b8 61 62 6c 65 20 	movabs $0x206f7420656c6261,%rax
  402a98:	74 6f 20 
  402a9b:	48 89 43 10          	mov    %rax,0x10(%rbx)
  402a9f:	48 b8 72 65 61 64 20 	movabs $0x6174732064616572,%rax
  402aa6:	73 74 61 
  402aa9:	48 89 43 18          	mov    %rax,0x18(%rbx)
  402aad:	48 b8 74 75 73 20 6d 	movabs $0x7373656d20737574,%rax
  402ab4:	65 73 73 
  402ab7:	48 89 43 20          	mov    %rax,0x20(%rbx)
  402abb:	48 b8 61 67 65 20 66 	movabs $0x6d6f726620656761,%rax
  402ac2:	72 6f 6d 
  402ac5:	48 89 43 28          	mov    %rax,0x28(%rbx)
  402ac9:	48 b8 20 72 65 73 75 	movabs $0x20746c7573657220,%rax
  402ad0:	6c 74 20 
  402ad3:	48 89 43 30          	mov    %rax,0x30(%rbx)
  402ad7:	c7 43 38 73 65 72 76 	movl   $0x76726573,0x38(%rbx)
  402ade:	66 c7 43 3c 65 72    	movw   $0x7265,0x3c(%rbx)
  402ae4:	c6 43 3e 00          	movb   $0x0,0x3e(%rbx)
  402ae8:	89 ef                	mov    %ebp,%edi
  402aea:	e8 61 e2 ff ff       	callq  400d50 <close@plt>
  402aef:	b8 ff ff ff ff       	mov    $0xffffffff,%eax
  402af4:	e9 b7 00 00 00       	jmpq   402bb0 <submitr+0x709>
  402af9:	8b 94 24 1c 20 00 00 	mov    0x201c(%rsp),%edx
  402b00:	81 fa c8 00 00 00    	cmp    $0xc8,%edx
  402b06:	74 28                	je     402b30 <submitr+0x689>
  402b08:	48 8d 4c 24 10       	lea    0x10(%rsp),%rcx
  402b0d:	be c8 47 40 00       	mov    $0x4047c8,%esi
  402b12:	48 89 df             	mov    %rbx,%rdi
  402b15:	b8 00 00 00 00       	mov    $0x0,%eax
  402b1a:	e8 81 e3 ff ff       	callq  400ea0 <sprintf@plt>
  402b1f:	89 ef                	mov    %ebp,%edi
  402b21:	e8 2a e2 ff ff       	callq  400d50 <close@plt>
  402b26:	b8 ff ff ff ff       	mov    $0xffffffff,%eax
  402b2b:	e9 80 00 00 00       	jmpq   402bb0 <submitr+0x709>
  402b30:	48 8d b4 24 20 60 00 	lea    0x6020(%rsp),%rsi
  402b37:	00 
  402b38:	48 89 df             	mov    %rbx,%rdi
  402b3b:	e8 a0 e1 ff ff       	callq  400ce0 <strcpy@plt>
  402b40:	89 ef                	mov    %ebp,%edi
  402b42:	e8 09 e2 ff ff       	callq  400d50 <close@plt>
  402b47:	0f b6 03             	movzbl (%rbx),%eax
  402b4a:	83 e8 4f             	sub    $0x4f,%eax
  402b4d:	75 18                	jne    402b67 <submitr+0x6c0>
  402b4f:	0f b6 53 01          	movzbl 0x1(%rbx),%edx
  402b53:	83 ea 4b             	sub    $0x4b,%edx
  402b56:	75 11                	jne    402b69 <submitr+0x6c2>
  402b58:	0f b6 53 02          	movzbl 0x2(%rbx),%edx
  402b5c:	83 ea 0a             	sub    $0xa,%edx
  402b5f:	75 08                	jne    402b69 <submitr+0x6c2>
  402b61:	0f b6 53 03          	movzbl 0x3(%rbx),%edx
  402b65:	eb 02                	jmp    402b69 <submitr+0x6c2>
  402b67:	89 c2                	mov    %eax,%edx
  402b69:	85 d2                	test   %edx,%edx
  402b6b:	74 30                	je     402b9d <submitr+0x6f6>
  402b6d:	bf 10 48 40 00       	mov    $0x404810,%edi
  402b72:	b9 05 00 00 00       	mov    $0x5,%ecx
  402b77:	48 89 de             	mov    %rbx,%rsi
  402b7a:	f3 a6                	repz cmpsb %es:(%rdi),%ds:(%rsi)
  402b7c:	0f 97 c1             	seta   %cl
  402b7f:	0f 92 c2             	setb   %dl
  402b82:	38 d1                	cmp    %dl,%cl
  402b84:	74 1e                	je     402ba4 <submitr+0x6fd>
  402b86:	85 c0                	test   %eax,%eax
  402b88:	75 0d                	jne    402b97 <submitr+0x6f0>
  402b8a:	0f b6 43 01          	movzbl 0x1(%rbx),%eax
  402b8e:	83 e8 4b             	sub    $0x4b,%eax
  402b91:	75 04                	jne    402b97 <submitr+0x6f0>
  402b93:	0f b6 43 02          	movzbl 0x2(%rbx),%eax
  402b97:	85 c0                	test   %eax,%eax
  402b99:	75 10                	jne    402bab <submitr+0x704>
  402b9b:	eb 13                	jmp    402bb0 <submitr+0x709>
  402b9d:	b8 00 00 00 00       	mov    $0x0,%eax
  402ba2:	eb 0c                	jmp    402bb0 <submitr+0x709>
  402ba4:	b8 00 00 00 00       	mov    $0x0,%eax
  402ba9:	eb 05                	jmp    402bb0 <submitr+0x709>
  402bab:	b8 ff ff ff ff       	mov    $0xffffffff,%eax
  402bb0:	48 81 c4 48 a0 00 00 	add    $0xa048,%rsp
  402bb7:	5b                   	pop    %rbx
  402bb8:	5d                   	pop    %rbp
  402bb9:	41 5c                	pop    %r12
  402bbb:	41 5d                	pop    %r13
  402bbd:	41 5e                	pop    %r14
  402bbf:	41 5f                	pop    %r15
  402bc1:	c3                   	retq   

0000000000402bc2 <init_timeout>:
  402bc2:	53                   	push   %rbx
  402bc3:	89 fb                	mov    %edi,%ebx
  402bc5:	85 ff                	test   %edi,%edi
  402bc7:	74 1f                	je     402be8 <init_timeout+0x26>
  402bc9:	85 ff                	test   %edi,%edi
  402bcb:	79 05                	jns    402bd2 <init_timeout+0x10>
  402bcd:	bb 00 00 00 00       	mov    $0x0,%ebx
  402bd2:	be 42 22 40 00       	mov    $0x402242,%esi
  402bd7:	bf 0e 00 00 00       	mov    $0xe,%edi
  402bdc:	e8 9f e1 ff ff       	callq  400d80 <signal@plt>
  402be1:	89 df                	mov    %ebx,%edi
  402be3:	e8 58 e1 ff ff       	callq  400d40 <alarm@plt>
  402be8:	5b                   	pop    %rbx
  402be9:	c3                   	retq   

0000000000402bea <init_driver>:
  402bea:	55                   	push   %rbp
  402beb:	53                   	push   %rbx
  402bec:	48 83 ec 18          	sub    $0x18,%rsp
  402bf0:	48 89 fd             	mov    %rdi,%rbp
  402bf3:	be 01 00 00 00       	mov    $0x1,%esi
  402bf8:	bf 0d 00 00 00       	mov    $0xd,%edi
  402bfd:	e8 7e e1 ff ff       	callq  400d80 <signal@plt>
  402c02:	be 01 00 00 00       	mov    $0x1,%esi
  402c07:	bf 1d 00 00 00       	mov    $0x1d,%edi
  402c0c:	e8 6f e1 ff ff       	callq  400d80 <signal@plt>
  402c11:	be 01 00 00 00       	mov    $0x1,%esi
  402c16:	bf 1d 00 00 00       	mov    $0x1d,%edi
  402c1b:	e8 60 e1 ff ff       	callq  400d80 <signal@plt>
  402c20:	ba 00 00 00 00       	mov    $0x0,%edx
  402c25:	be 01 00 00 00       	mov    $0x1,%esi
  402c2a:	bf 02 00 00 00       	mov    $0x2,%edi
  402c2f:	e8 ac e2 ff ff       	callq  400ee0 <socket@plt>
  402c34:	89 c3                	mov    %eax,%ebx
  402c36:	85 c0                	test   %eax,%eax
  402c38:	79 4f                	jns    402c89 <init_driver+0x9f>
  402c3a:	48 b8 45 72 72 6f 72 	movabs $0x43203a726f727245,%rax
  402c41:	3a 20 43 
  402c44:	48 89 45 00          	mov    %rax,0x0(%rbp)
  402c48:	48 b8 6c 69 65 6e 74 	movabs $0x6e7520746e65696c,%rax
  402c4f:	20 75 6e 
  402c52:	48 89 45 08          	mov    %rax,0x8(%rbp)
  402c56:	48 b8 61 62 6c 65 20 	movabs $0x206f7420656c6261,%rax
  402c5d:	74 6f 20 
  402c60:	48 89 45 10          	mov    %rax,0x10(%rbp)
  402c64:	48 b8 63 72 65 61 74 	movabs $0x7320657461657263,%rax
  402c6b:	65 20 73 
  402c6e:	48 89 45 18          	mov    %rax,0x18(%rbp)
  402c72:	c7 45 20 6f 63 6b 65 	movl   $0x656b636f,0x20(%rbp)
  402c79:	66 c7 45 24 74 00    	movw   $0x74,0x24(%rbp)
  402c7f:	b8 ff ff ff ff       	mov    $0xffffffff,%eax
  402c84:	e9 23 01 00 00       	jmpq   402dac <init_driver+0x1c2>
  402c89:	bf 55 33 40 00       	mov    $0x403355,%edi
  402c8e:	e8 fd e0 ff ff       	callq  400d90 <gethostbyname@plt>
  402c93:	48 85 c0             	test   %rax,%rax
  402c96:	75 68                	jne    402d00 <init_driver+0x116>
  402c98:	48 b8 45 72 72 6f 72 	movabs $0x44203a726f727245,%rax
  402c9f:	3a 20 44 
  402ca2:	48 89 45 00          	mov    %rax,0x0(%rbp)
  402ca6:	48 b8 4e 53 20 69 73 	movabs $0x6e7520736920534e,%rax
  402cad:	20 75 6e 
  402cb0:	48 89 45 08          	mov    %rax,0x8(%rbp)
  402cb4:	48 b8 61 62 6c 65 20 	movabs $0x206f7420656c6261,%rax
  402cbb:	74 6f 20 
  402cbe:	48 89 45 10          	mov    %rax,0x10(%rbp)
  402cc2:	48 b8 72 65 73 6f 6c 	movabs $0x2065766c6f736572,%rax
  402cc9:	76 65 20 
  402ccc:	48 89 45 18          	mov    %rax,0x18(%rbp)
  402cd0:	48 b8 73 65 72 76 65 	movabs $0x6120726576726573,%rax
  402cd7:	72 20 61 
  402cda:	48 89 45 20          	mov    %rax,0x20(%rbp)
  402cde:	c7 45 28 64 64 72 65 	movl   $0x65726464,0x28(%rbp)
  402ce5:	66 c7 45 2c 73 73    	movw   $0x7373,0x2c(%rbp)
  402ceb:	c6 45 2e 00          	movb   $0x0,0x2e(%rbp)
  402cef:	89 df                	mov    %ebx,%edi
  402cf1:	e8 5a e0 ff ff       	callq  400d50 <close@plt>
  402cf6:	b8 ff ff ff ff       	mov    $0xffffffff,%eax
  402cfb:	e9 ac 00 00 00       	jmpq   402dac <init_driver+0x1c2>
  402d00:	48 c7 04 24 00 00 00 	movq   $0x0,(%rsp)
  402d07:	00 
  402d08:	48 c7 44 24 08 00 00 	movq   $0x0,0x8(%rsp)
  402d0f:	00 00 
  402d11:	66 c7 04 24 02 00    	movw   $0x2,(%rsp)
  402d17:	48 8b 48 18          	mov    0x18(%rax),%rcx
  402d1b:	48 63 50 14          	movslq 0x14(%rax),%rdx
  402d1f:	48 8d 74 24 04       	lea    0x4(%rsp),%rsi
  402d24:	48 8b 39             	mov    (%rcx),%rdi
  402d27:	e8 14 e1 ff ff       	callq  400e40 <bcopy@plt>
  402d2c:	66 c7 44 24 02 3c 9a 	movw   $0x9a3c,0x2(%rsp)
  402d33:	ba 10 00 00 00       	mov    $0x10,%edx
  402d38:	48 89 e6             	mov    %rsp,%rsi
  402d3b:	89 df                	mov    %ebx,%edi
  402d3d:	e8 7e e1 ff ff       	callq  400ec0 <connect@plt>
  402d42:	85 c0                	test   %eax,%eax
  402d44:	79 50                	jns    402d96 <init_driver+0x1ac>
  402d46:	48 b8 45 72 72 6f 72 	movabs $0x55203a726f727245,%rax
  402d4d:	3a 20 55 
  402d50:	48 89 45 00          	mov    %rax,0x0(%rbp)
  402d54:	48 b8 6e 61 62 6c 65 	movabs $0x6f7420656c62616e,%rax
  402d5b:	20 74 6f 
  402d5e:	48 89 45 08          	mov    %rax,0x8(%rbp)
  402d62:	48 b8 20 63 6f 6e 6e 	movabs $0x7463656e6e6f6320,%rax
  402d69:	65 63 74 
  402d6c:	48 89 45 10          	mov    %rax,0x10(%rbp)
  402d70:	48 b8 20 74 6f 20 73 	movabs $0x76726573206f7420,%rax
  402d77:	65 72 76 
  402d7a:	48 89 45 18          	mov    %rax,0x18(%rbp)
  402d7e:	66 c7 45 20 65 72    	movw   $0x7265,0x20(%rbp)
  402d84:	c6 45 22 00          	movb   $0x0,0x22(%rbp)
  402d88:	89 df                	mov    %ebx,%edi
  402d8a:	e8 c1 df ff ff       	callq  400d50 <close@plt>
  402d8f:	b8 ff ff ff ff       	mov    $0xffffffff,%eax
  402d94:	eb 16                	jmp    402dac <init_driver+0x1c2>
  402d96:	89 df                	mov    %ebx,%edi
  402d98:	e8 b3 df ff ff       	callq  400d50 <close@plt>
  402d9d:	66 c7 45 00 4f 4b    	movw   $0x4b4f,0x0(%rbp)
  402da3:	c6 45 02 00          	movb   $0x0,0x2(%rbp)
  402da7:	b8 00 00 00 00       	mov    $0x0,%eax
  402dac:	48 83 c4 18          	add    $0x18,%rsp
  402db0:	5b                   	pop    %rbx
  402db1:	5d                   	pop    %rbp
  402db2:	c3                   	retq   

0000000000402db3 <driver_post>:
  402db3:	53                   	push   %rbx
  402db4:	48 83 ec 10          	sub    $0x10,%rsp
  402db8:	4c 89 cb             	mov    %r9,%rbx
  402dbb:	45 85 c0             	test   %r8d,%r8d
  402dbe:	74 22                	je     402de2 <driver_post+0x2f>
  402dc0:	48 89 ce             	mov    %rcx,%rsi
  402dc3:	bf 15 48 40 00       	mov    $0x404815,%edi
  402dc8:	b8 00 00 00 00       	mov    $0x0,%eax
  402dcd:	e8 4e df ff ff       	callq  400d20 <printf@plt>
  402dd2:	66 c7 03 4f 4b       	movw   $0x4b4f,(%rbx)
  402dd7:	c6 43 02 00          	movb   $0x0,0x2(%rbx)
  402ddb:	b8 00 00 00 00       	mov    $0x0,%eax
  402de0:	eb 39                	jmp    402e1b <driver_post+0x68>
  402de2:	48 85 ff             	test   %rdi,%rdi
  402de5:	74 26                	je     402e0d <driver_post+0x5a>
  402de7:	80 3f 00             	cmpb   $0x0,(%rdi)
  402dea:	74 21                	je     402e0d <driver_post+0x5a>
  402dec:	4c 89 0c 24          	mov    %r9,(%rsp)
  402df0:	49 89 c9             	mov    %rcx,%r9
  402df3:	49 89 d0             	mov    %rdx,%r8
  402df6:	48 89 f9             	mov    %rdi,%rcx
  402df9:	48 89 f2             	mov    %rsi,%rdx
  402dfc:	be 9a 3c 00 00       	mov    $0x3c9a,%esi
  402e01:	bf 55 33 40 00       	mov    $0x403355,%edi
  402e06:	e8 9c f6 ff ff       	callq  4024a7 <submitr>
  402e0b:	eb 0e                	jmp    402e1b <driver_post+0x68>
  402e0d:	66 c7 03 4f 4b       	movw   $0x4b4f,(%rbx)
  402e12:	c6 43 02 00          	movb   $0x0,0x2(%rbx)
  402e16:	b8 00 00 00 00       	mov    $0x0,%eax
  402e1b:	48 83 c4 10          	add    $0x10,%rsp
  402e1f:	5b                   	pop    %rbx
  402e20:	c3                   	retq   

0000000000402e21 <check>:
  402e21:	89 f8                	mov    %edi,%eax
  402e23:	c1 e8 1c             	shr    $0x1c,%eax
  402e26:	85 c0                	test   %eax,%eax
  402e28:	74 1d                	je     402e47 <check+0x26>
  402e2a:	b9 00 00 00 00       	mov    $0x0,%ecx
  402e2f:	eb 0b                	jmp    402e3c <check+0x1b>
  402e31:	89 f8                	mov    %edi,%eax
  402e33:	d3 e8                	shr    %cl,%eax
  402e35:	3c 0a                	cmp    $0xa,%al
  402e37:	74 14                	je     402e4d <check+0x2c>
  402e39:	83 c1 08             	add    $0x8,%ecx
  402e3c:	83 f9 1f             	cmp    $0x1f,%ecx
  402e3f:	7e f0                	jle    402e31 <check+0x10>
  402e41:	b8 01 00 00 00       	mov    $0x1,%eax
  402e46:	c3                   	retq   
  402e47:	b8 00 00 00 00       	mov    $0x0,%eax
  402e4c:	c3                   	retq   
  402e4d:	b8 00 00 00 00       	mov    $0x0,%eax
  402e52:	c3                   	retq   

0000000000402e53 <gencookie>:
  402e53:	53                   	push   %rbx
  402e54:	83 c7 01             	add    $0x1,%edi
  402e57:	e8 64 de ff ff       	callq  400cc0 <srandom@plt>
  402e5c:	e8 9f df ff ff       	callq  400e00 <random@plt>
  402e61:	89 c3                	mov    %eax,%ebx
  402e63:	89 c7                	mov    %eax,%edi
  402e65:	e8 b7 ff ff ff       	callq  402e21 <check>
  402e6a:	85 c0                	test   %eax,%eax
  402e6c:	74 ee                	je     402e5c <gencookie+0x9>
  402e6e:	89 d8                	mov    %ebx,%eax
  402e70:	5b                   	pop    %rbx
  402e71:	c3                   	retq   
  402e72:	66 2e 0f 1f 84 00 00 	nopw   %cs:0x0(%rax,%rax,1)
  402e79:	00 00 00 
  402e7c:	0f 1f 40 00          	nopl   0x0(%rax)

0000000000402e80 <__libc_csu_init>:
  402e80:	41 57                	push   %r15
  402e82:	41 89 ff             	mov    %edi,%r15d
  402e85:	41 56                	push   %r14
  402e87:	49 89 f6             	mov    %rsi,%r14
  402e8a:	41 55                	push   %r13
  402e8c:	49 89 d5             	mov    %rdx,%r13
  402e8f:	41 54                	push   %r12
  402e91:	4c 8d 25 78 2f 20 00 	lea    0x202f78(%rip),%r12        # 605e10 <__frame_dummy_init_array_entry>
  402e98:	55                   	push   %rbp
  402e99:	48 8d 2d 78 2f 20 00 	lea    0x202f78(%rip),%rbp        # 605e18 <__init_array_end>
  402ea0:	53                   	push   %rbx
  402ea1:	4c 29 e5             	sub    %r12,%rbp
  402ea4:	31 db                	xor    %ebx,%ebx
  402ea6:	48 c1 fd 03          	sar    $0x3,%rbp
  402eaa:	48 83 ec 08          	sub    $0x8,%rsp
  402eae:	e8 b5 dd ff ff       	callq  400c68 <_init>
  402eb3:	48 85 ed             	test   %rbp,%rbp
  402eb6:	74 1e                	je     402ed6 <__libc_csu_init+0x56>
  402eb8:	0f 1f 84 00 00 00 00 	nopl   0x0(%rax,%rax,1)
  402ebf:	00 
  402ec0:	4c 89 ea             	mov    %r13,%rdx
  402ec3:	4c 89 f6             	mov    %r14,%rsi
  402ec6:	44 89 ff             	mov    %r15d,%edi
  402ec9:	41 ff 14 dc          	callq  *(%r12,%rbx,8)
  402ecd:	48 83 c3 01          	add    $0x1,%rbx
  402ed1:	48 39 eb             	cmp    %rbp,%rbx
  402ed4:	75 ea                	jne    402ec0 <__libc_csu_init+0x40>
  402ed6:	48 83 c4 08          	add    $0x8,%rsp
  402eda:	5b                   	pop    %rbx
  402edb:	5d                   	pop    %rbp
  402edc:	41 5c                	pop    %r12
  402ede:	41 5d                	pop    %r13
  402ee0:	41 5e                	pop    %r14
  402ee2:	41 5f                	pop    %r15
  402ee4:	c3                   	retq   
  402ee5:	90                   	nop
  402ee6:	66 2e 0f 1f 84 00 00 	nopw   %cs:0x0(%rax,%rax,1)
  402eed:	00 00 00 

0000000000402ef0 <__libc_csu_fini>:
  402ef0:	f3 c3                	repz retq 

Disassembly of section .fini:

0000000000402ef4 <_fini>:
  402ef4:	48 83 ec 08          	sub    $0x8,%rsp
  402ef8:	48 83 c4 08          	add    $0x8,%rsp
  402efc:	c3                   	retq   
